
GccApplication1.elf:     file format elf32-avr

Sections:
Idx Name          Size      VMA       LMA       File off  Algn
  0 .text         00000e44  00000000  00000000  00000074  2**1
                  CONTENTS, ALLOC, LOAD, READONLY, CODE
  1 .data         00000014  00800060  00000e44  00000eb8  2**0
                  CONTENTS, ALLOC, LOAD, DATA
  2 .comment      00000060  00000000  00000000  00000ecc  2**0
                  CONTENTS, READONLY
  3 .note.gnu.avr.deviceinfo 0000003c  00000000  00000000  00000f2c  2**2
                  CONTENTS, READONLY
  4 .debug_aranges 000001c0  00000000  00000000  00000f68  2**0
                  CONTENTS, READONLY, DEBUGGING
  5 .debug_info   000035ae  00000000  00000000  00001128  2**0
                  CONTENTS, READONLY, DEBUGGING
  6 .debug_abbrev 00000bf3  00000000  00000000  000046d6  2**0
                  CONTENTS, READONLY, DEBUGGING
  7 .debug_line   00001a90  00000000  00000000  000052c9  2**0
                  CONTENTS, READONLY, DEBUGGING
  8 .debug_frame  00000350  00000000  00000000  00006d5c  2**2
                  CONTENTS, READONLY, DEBUGGING
  9 .debug_str    000007d2  00000000  00000000  000070ac  2**0
                  CONTENTS, READONLY, DEBUGGING
 10 .debug_loc    00001085  00000000  00000000  0000787e  2**0
                  CONTENTS, READONLY, DEBUGGING
 11 .debug_ranges 00000150  00000000  00000000  00008903  2**0
                  CONTENTS, READONLY, DEBUGGING

Disassembly of section .text:

00000000 <__vectors>:
   0:	0c 94 34 00 	jmp	0x68	; 0x68 <__ctors_end>
   4:	0c 94 49 00 	jmp	0x92	; 0x92 <__bad_interrupt>
   8:	0c 94 49 00 	jmp	0x92	; 0x92 <__bad_interrupt>
   c:	0c 94 49 00 	jmp	0x92	; 0x92 <__bad_interrupt>
  10:	0c 94 49 00 	jmp	0x92	; 0x92 <__bad_interrupt>
  14:	0c 94 49 00 	jmp	0x92	; 0x92 <__bad_interrupt>
  18:	0c 94 49 00 	jmp	0x92	; 0x92 <__bad_interrupt>
  1c:	0c 94 49 00 	jmp	0x92	; 0x92 <__bad_interrupt>
  20:	0c 94 49 00 	jmp	0x92	; 0x92 <__bad_interrupt>
  24:	0c 94 49 00 	jmp	0x92	; 0x92 <__bad_interrupt>
  28:	0c 94 49 00 	jmp	0x92	; 0x92 <__bad_interrupt>
  2c:	0c 94 49 00 	jmp	0x92	; 0x92 <__bad_interrupt>
  30:	0c 94 49 00 	jmp	0x92	; 0x92 <__bad_interrupt>
  34:	0c 94 49 00 	jmp	0x92	; 0x92 <__bad_interrupt>
  38:	0c 94 49 00 	jmp	0x92	; 0x92 <__bad_interrupt>
  3c:	0c 94 49 00 	jmp	0x92	; 0x92 <__bad_interrupt>
  40:	0c 94 49 00 	jmp	0x92	; 0x92 <__bad_interrupt>
  44:	0c 94 49 00 	jmp	0x92	; 0x92 <__bad_interrupt>
  48:	0c 94 49 00 	jmp	0x92	; 0x92 <__bad_interrupt>
  4c:	0c 94 49 00 	jmp	0x92	; 0x92 <__bad_interrupt>
  50:	0c 94 49 00 	jmp	0x92	; 0x92 <__bad_interrupt>
  54:	85 04       	cpc	r8, r5
  56:	a2 04       	cpc	r10, r2
  58:	bf 04       	cpc	r11, r15
  5a:	dc 04       	cpc	r13, r12
  5c:	f9 04       	cpc	r15, r9
  5e:	16 05       	cpc	r17, r6
  60:	33 05       	cpc	r19, r3
  62:	50 05       	cpc	r21, r0
  64:	6d 05       	cpc	r22, r13
  66:	8a 05       	cpc	r24, r10

00000068 <__ctors_end>:
  68:	11 24       	eor	r1, r1
  6a:	1f be       	out	0x3f, r1	; 63
  6c:	cf e5       	ldi	r28, 0x5F	; 95
  6e:	d8 e0       	ldi	r29, 0x08	; 8
  70:	de bf       	out	0x3e, r29	; 62
  72:	cd bf       	out	0x3d, r28	; 61

00000074 <__do_copy_data>:
  74:	10 e0       	ldi	r17, 0x00	; 0
  76:	a0 e6       	ldi	r26, 0x60	; 96
  78:	b0 e0       	ldi	r27, 0x00	; 0
  7a:	e4 e4       	ldi	r30, 0x44	; 68
  7c:	fe e0       	ldi	r31, 0x0E	; 14
  7e:	02 c0       	rjmp	.+4      	; 0x84 <__do_copy_data+0x10>
  80:	05 90       	lpm	r0, Z+
  82:	0d 92       	st	X+, r0
  84:	a4 37       	cpi	r26, 0x74	; 116
  86:	b1 07       	cpc	r27, r17
  88:	d9 f7       	brne	.-10     	; 0x80 <__do_copy_data+0xc>
  8a:	0e 94 4b 00 	call	0x96	; 0x96 <main>
  8e:	0c 94 20 07 	jmp	0xe40	; 0xe40 <_exit>

00000092 <__bad_interrupt>:
  92:	0c 94 00 00 	jmp	0	; 0x0 <__vectors>

00000096 <main>:

									

int main(void)
{				
	H_Buzzer_Init();							
  96:	0e 94 cd 02 	call	0x59a	; 0x59a <H_Buzzer_Init>
	H_Lcd_Init();						
  9a:	0e 94 c4 03 	call	0x788	; 0x788 <H_Lcd_Init>
	H_KeyPad_Init();
  9e:	0e 94 15 03 	call	0x62a	; 0x62a <H_KeyPad_Init>
	H_Led_Init(RED_LED);
  a2:	83 e0       	ldi	r24, 0x03	; 3
  a4:	0e 94 23 04 	call	0x846	; 0x846 <H_Led_Init>
	H_Led_Init(BLU_LED);
  a8:	81 e0       	ldi	r24, 0x01	; 1
  aa:	0e 94 23 04 	call	0x846	; 0x846 <H_Led_Init>
	H_Led_Init(GRN_LED);
  ae:	82 e0       	ldi	r24, 0x02	; 2
  b0:	0e 94 23 04 	call	0x846	; 0x846 <H_Led_Init>
	H_Ssd_Init();
  b4:	0e 94 a8 05 	call	0xb50	; 0xb50 <H_Ssd_Init>
	while (1)
	{
		/*******Traffic lights************/
		/*		Red light                 */
		H_Lcd_GoTo(0,6);
  b8:	66 e0       	ldi	r22, 0x06	; 6
  ba:	80 e0       	ldi	r24, 0x00	; 0
  bc:	0e 94 0e 04 	call	0x81c	; 0x81c <H_Lcd_GoTo>
		H_Led_Off(BLU_LED);
  c0:	81 e0       	ldi	r24, 0x01	; 1
  c2:	0e 94 4d 04 	call	0x89a	; 0x89a <H_Led_Off>
		H_Led_On(RED_LED);
  c6:	83 e0       	ldi	r24, 0x03	; 3
  c8:	0e 94 38 04 	call	0x870	; 0x870 <H_Led_On>
		H_Lcd_WriteString("stop");
  cc:	80 e6       	ldi	r24, 0x60	; 96
  ce:	90 e0       	ldi	r25, 0x00	; 0
  d0:	0e 94 f8 03 	call	0x7f0	; 0x7f0 <H_Lcd_WriteString>
		H_Ssd_WriteNum(20);
  d4:	84 e1       	ldi	r24, 0x14	; 20
  d6:	0e 94 cd 05 	call	0xb9a	; 0xb9a <H_Ssd_WriteNum>
		H_Lcd_WriteCommand(0b00000001);
  da:	81 e0       	ldi	r24, 0x01	; 1
  dc:	0e 94 85 03 	call	0x70a	; 0x70a <H_Lcd_WriteCommand>
		
		H_Lcd_GoTo(0,6);
  e0:	66 e0       	ldi	r22, 0x06	; 6
  e2:	80 e0       	ldi	r24, 0x00	; 0
  e4:	0e 94 0e 04 	call	0x81c	; 0x81c <H_Lcd_GoTo>
		H_Lcd_WriteString("stop");
  e8:	80 e6       	ldi	r24, 0x60	; 96
  ea:	90 e0       	ldi	r25, 0x00	; 0
  ec:	0e 94 f8 03 	call	0x7f0	; 0x7f0 <H_Lcd_WriteString>
		H_Ssd_WriteNum(19);
  f0:	83 e1       	ldi	r24, 0x13	; 19
  f2:	0e 94 cd 05 	call	0xb9a	; 0xb9a <H_Ssd_WriteNum>
		H_Buzzer_Off();
  f6:	0e 94 d7 02 	call	0x5ae	; 0x5ae <H_Buzzer_Off>
		H_Led_On(RED_LED);
  fa:	83 e0       	ldi	r24, 0x03	; 3
  fc:	0e 94 38 04 	call	0x870	; 0x870 <H_Led_On>
		H_Led_Off(BLU_LED);
 100:	81 e0       	ldi	r24, 0x01	; 1
 102:	0e 94 4d 04 	call	0x89a	; 0x89a <H_Led_Off>
		H_Lcd_WriteCommand(0b00000001);
 106:	81 e0       	ldi	r24, 0x01	; 1
 108:	0e 94 85 03 	call	0x70a	; 0x70a <H_Lcd_WriteCommand>
		
		H_Ssd_WriteNum(18);
 10c:	82 e1       	ldi	r24, 0x12	; 18
 10e:	0e 94 cd 05 	call	0xb9a	; 0xb9a <H_Ssd_WriteNum>
		H_Led_On(RED_LED);
 112:	83 e0       	ldi	r24, 0x03	; 3
 114:	0e 94 38 04 	call	0x870	; 0x870 <H_Led_On>
		H_Led_Off(BLU_LED);
 118:	81 e0       	ldi	r24, 0x01	; 1
 11a:	0e 94 4d 04 	call	0x89a	; 0x89a <H_Led_Off>
		H_Lcd_WriteCommand(0b00000001);
 11e:	81 e0       	ldi	r24, 0x01	; 1
 120:	0e 94 85 03 	call	0x70a	; 0x70a <H_Lcd_WriteCommand>
		
		H_Ssd_WriteNum(17);
 124:	81 e1       	ldi	r24, 0x11	; 17
 126:	0e 94 cd 05 	call	0xb9a	; 0xb9a <H_Ssd_WriteNum>
		H_Led_On(RED_LED);
 12a:	83 e0       	ldi	r24, 0x03	; 3
 12c:	0e 94 38 04 	call	0x870	; 0x870 <H_Led_On>
		H_Led_Off(BLU_LED);
 130:	81 e0       	ldi	r24, 0x01	; 1
 132:	0e 94 4d 04 	call	0x89a	; 0x89a <H_Led_Off>
		H_Lcd_WriteCommand(0b00000001);
 136:	81 e0       	ldi	r24, 0x01	; 1
 138:	0e 94 85 03 	call	0x70a	; 0x70a <H_Lcd_WriteCommand>
		
		H_Ssd_WriteNum(16);
 13c:	80 e1       	ldi	r24, 0x10	; 16
 13e:	0e 94 cd 05 	call	0xb9a	; 0xb9a <H_Ssd_WriteNum>
		H_Led_On(RED_LED);
 142:	83 e0       	ldi	r24, 0x03	; 3
 144:	0e 94 38 04 	call	0x870	; 0x870 <H_Led_On>
		H_Led_Off(BLU_LED);
 148:	81 e0       	ldi	r24, 0x01	; 1
 14a:	0e 94 4d 04 	call	0x89a	; 0x89a <H_Led_Off>
		H_Lcd_WriteCommand(0b00000001);
 14e:	81 e0       	ldi	r24, 0x01	; 1
 150:	0e 94 85 03 	call	0x70a	; 0x70a <H_Lcd_WriteCommand>
		
		H_Ssd_WriteNum(15);
 154:	8f e0       	ldi	r24, 0x0F	; 15
 156:	0e 94 cd 05 	call	0xb9a	; 0xb9a <H_Ssd_WriteNum>
		H_Led_On(RED_LED);
 15a:	83 e0       	ldi	r24, 0x03	; 3
 15c:	0e 94 38 04 	call	0x870	; 0x870 <H_Led_On>
		H_Led_Off(BLU_LED);
 160:	81 e0       	ldi	r24, 0x01	; 1
 162:	0e 94 4d 04 	call	0x89a	; 0x89a <H_Led_Off>
		H_Lcd_WriteCommand(0b00000001);
 166:	81 e0       	ldi	r24, 0x01	; 1
 168:	0e 94 85 03 	call	0x70a	; 0x70a <H_Lcd_WriteCommand>
		
		H_Ssd_WriteNum(14);
 16c:	8e e0       	ldi	r24, 0x0E	; 14
 16e:	0e 94 cd 05 	call	0xb9a	; 0xb9a <H_Ssd_WriteNum>
		H_Led_On(RED_LED);
 172:	83 e0       	ldi	r24, 0x03	; 3
 174:	0e 94 38 04 	call	0x870	; 0x870 <H_Led_On>
		H_Led_Off(BLU_LED);
 178:	81 e0       	ldi	r24, 0x01	; 1
 17a:	0e 94 4d 04 	call	0x89a	; 0x89a <H_Led_Off>
		H_Lcd_WriteCommand(0b00000001);
 17e:	81 e0       	ldi	r24, 0x01	; 1
 180:	0e 94 85 03 	call	0x70a	; 0x70a <H_Lcd_WriteCommand>
		
		H_Ssd_WriteNum(13);
 184:	8d e0       	ldi	r24, 0x0D	; 13
 186:	0e 94 cd 05 	call	0xb9a	; 0xb9a <H_Ssd_WriteNum>
		H_Led_On(RED_LED);
 18a:	83 e0       	ldi	r24, 0x03	; 3
 18c:	0e 94 38 04 	call	0x870	; 0x870 <H_Led_On>
		H_Led_Off(BLU_LED);
 190:	81 e0       	ldi	r24, 0x01	; 1
 192:	0e 94 4d 04 	call	0x89a	; 0x89a <H_Led_Off>
		H_Lcd_WriteCommand(0b00000001);
 196:	81 e0       	ldi	r24, 0x01	; 1
 198:	0e 94 85 03 	call	0x70a	; 0x70a <H_Lcd_WriteCommand>
		
		H_Ssd_WriteNum(12);
 19c:	8c e0       	ldi	r24, 0x0C	; 12
 19e:	0e 94 cd 05 	call	0xb9a	; 0xb9a <H_Ssd_WriteNum>
		H_Led_On(RED_LED);
 1a2:	83 e0       	ldi	r24, 0x03	; 3
 1a4:	0e 94 38 04 	call	0x870	; 0x870 <H_Led_On>
		H_Led_Off(BLU_LED);
 1a8:	81 e0       	ldi	r24, 0x01	; 1
 1aa:	0e 94 4d 04 	call	0x89a	; 0x89a <H_Led_Off>
		H_Lcd_WriteCommand(0b00000001);
 1ae:	81 e0       	ldi	r24, 0x01	; 1
 1b0:	0e 94 85 03 	call	0x70a	; 0x70a <H_Lcd_WriteCommand>
		
		H_Ssd_WriteNum(11);
 1b4:	8b e0       	ldi	r24, 0x0B	; 11
 1b6:	0e 94 cd 05 	call	0xb9a	; 0xb9a <H_Ssd_WriteNum>
		H_Led_On(RED_LED);
 1ba:	83 e0       	ldi	r24, 0x03	; 3
 1bc:	0e 94 38 04 	call	0x870	; 0x870 <H_Led_On>
		H_Led_Off(BLU_LED);
 1c0:	81 e0       	ldi	r24, 0x01	; 1
 1c2:	0e 94 4d 04 	call	0x89a	; 0x89a <H_Led_Off>
		H_Lcd_WriteCommand(0b00000001);
 1c6:	81 e0       	ldi	r24, 0x01	; 1
 1c8:	0e 94 85 03 	call	0x70a	; 0x70a <H_Lcd_WriteCommand>
		
		H_Ssd_WriteNum(10);
 1cc:	8a e0       	ldi	r24, 0x0A	; 10
 1ce:	0e 94 cd 05 	call	0xb9a	; 0xb9a <H_Ssd_WriteNum>
		H_Led_On(RED_LED);
 1d2:	83 e0       	ldi	r24, 0x03	; 3
 1d4:	0e 94 38 04 	call	0x870	; 0x870 <H_Led_On>
		H_Led_Off(BLU_LED);
 1d8:	81 e0       	ldi	r24, 0x01	; 1
 1da:	0e 94 4d 04 	call	0x89a	; 0x89a <H_Led_Off>
		H_Lcd_WriteCommand(0b00000001);
 1de:	81 e0       	ldi	r24, 0x01	; 1
 1e0:	0e 94 85 03 	call	0x70a	; 0x70a <H_Lcd_WriteCommand>
		
		H_Ssd_WriteNum(9);
 1e4:	89 e0       	ldi	r24, 0x09	; 9
 1e6:	0e 94 cd 05 	call	0xb9a	; 0xb9a <H_Ssd_WriteNum>
		H_Led_On(RED_LED);
 1ea:	83 e0       	ldi	r24, 0x03	; 3
 1ec:	0e 94 38 04 	call	0x870	; 0x870 <H_Led_On>
		H_Led_Off(BLU_LED);
 1f0:	81 e0       	ldi	r24, 0x01	; 1
 1f2:	0e 94 4d 04 	call	0x89a	; 0x89a <H_Led_Off>
		H_Lcd_WriteCommand(0b00000001);
 1f6:	81 e0       	ldi	r24, 0x01	; 1
 1f8:	0e 94 85 03 	call	0x70a	; 0x70a <H_Lcd_WriteCommand>
		
		H_Ssd_WriteNum(8);
 1fc:	88 e0       	ldi	r24, 0x08	; 8
 1fe:	0e 94 cd 05 	call	0xb9a	; 0xb9a <H_Ssd_WriteNum>
		H_Led_On(RED_LED);
 202:	83 e0       	ldi	r24, 0x03	; 3
 204:	0e 94 38 04 	call	0x870	; 0x870 <H_Led_On>
		H_Led_Off(BLU_LED);
 208:	81 e0       	ldi	r24, 0x01	; 1
 20a:	0e 94 4d 04 	call	0x89a	; 0x89a <H_Led_Off>
		H_Lcd_WriteCommand(0b00000001);
 20e:	81 e0       	ldi	r24, 0x01	; 1
 210:	0e 94 85 03 	call	0x70a	; 0x70a <H_Lcd_WriteCommand>
		
		H_Ssd_WriteNum(7);
 214:	87 e0       	ldi	r24, 0x07	; 7
 216:	0e 94 cd 05 	call	0xb9a	; 0xb9a <H_Ssd_WriteNum>
		H_Led_On(RED_LED);
 21a:	83 e0       	ldi	r24, 0x03	; 3
 21c:	0e 94 38 04 	call	0x870	; 0x870 <H_Led_On>
		H_Led_Off(BLU_LED);
 220:	81 e0       	ldi	r24, 0x01	; 1
 222:	0e 94 4d 04 	call	0x89a	; 0x89a <H_Led_Off>
		H_Lcd_WriteCommand(0b00000001);
 226:	81 e0       	ldi	r24, 0x01	; 1
 228:	0e 94 85 03 	call	0x70a	; 0x70a <H_Lcd_WriteCommand>
		
		H_Ssd_WriteNum(6);
 22c:	86 e0       	ldi	r24, 0x06	; 6
 22e:	0e 94 cd 05 	call	0xb9a	; 0xb9a <H_Ssd_WriteNum>
		H_Led_On(RED_LED);
 232:	83 e0       	ldi	r24, 0x03	; 3
 234:	0e 94 38 04 	call	0x870	; 0x870 <H_Led_On>
		H_Led_Off(BLU_LED);
 238:	81 e0       	ldi	r24, 0x01	; 1
 23a:	0e 94 4d 04 	call	0x89a	; 0x89a <H_Led_Off>
		H_Lcd_WriteCommand(0b00000001);
 23e:	81 e0       	ldi	r24, 0x01	; 1
 240:	0e 94 85 03 	call	0x70a	; 0x70a <H_Lcd_WriteCommand>
		
		H_Ssd_WriteNum(5);
 244:	85 e0       	ldi	r24, 0x05	; 5
 246:	0e 94 cd 05 	call	0xb9a	; 0xb9a <H_Ssd_WriteNum>
		H_Led_On(RED_LED);
 24a:	83 e0       	ldi	r24, 0x03	; 3
 24c:	0e 94 38 04 	call	0x870	; 0x870 <H_Led_On>
		H_Led_Off(BLU_LED);
 250:	81 e0       	ldi	r24, 0x01	; 1
 252:	0e 94 4d 04 	call	0x89a	; 0x89a <H_Led_Off>
		H_Lcd_WriteCommand(0b00000001);
 256:	81 e0       	ldi	r24, 0x01	; 1
 258:	0e 94 85 03 	call	0x70a	; 0x70a <H_Lcd_WriteCommand>
		
		H_Ssd_WriteNum(4);
 25c:	84 e0       	ldi	r24, 0x04	; 4
 25e:	0e 94 cd 05 	call	0xb9a	; 0xb9a <H_Ssd_WriteNum>
		H_Led_On(RED_LED);
 262:	83 e0       	ldi	r24, 0x03	; 3
 264:	0e 94 38 04 	call	0x870	; 0x870 <H_Led_On>
		H_Led_Off(BLU_LED);
 268:	81 e0       	ldi	r24, 0x01	; 1
 26a:	0e 94 4d 04 	call	0x89a	; 0x89a <H_Led_Off>
		H_Lcd_WriteCommand(0b00000001);
 26e:	81 e0       	ldi	r24, 0x01	; 1
 270:	0e 94 85 03 	call	0x70a	; 0x70a <H_Lcd_WriteCommand>
		
		H_Ssd_WriteNum(3);
 274:	83 e0       	ldi	r24, 0x03	; 3
 276:	0e 94 cd 05 	call	0xb9a	; 0xb9a <H_Ssd_WriteNum>
		H_Led_On(RED_LED);
 27a:	83 e0       	ldi	r24, 0x03	; 3
 27c:	0e 94 38 04 	call	0x870	; 0x870 <H_Led_On>
		H_Led_Off(BLU_LED);
 280:	81 e0       	ldi	r24, 0x01	; 1
 282:	0e 94 4d 04 	call	0x89a	; 0x89a <H_Led_Off>
		H_Lcd_WriteCommand(0b00000001);
 286:	81 e0       	ldi	r24, 0x01	; 1
 288:	0e 94 85 03 	call	0x70a	; 0x70a <H_Lcd_WriteCommand>
		
		H_Ssd_WriteNum(2);
 28c:	82 e0       	ldi	r24, 0x02	; 2
 28e:	0e 94 cd 05 	call	0xb9a	; 0xb9a <H_Ssd_WriteNum>
		H_Led_On(RED_LED);
 292:	83 e0       	ldi	r24, 0x03	; 3
 294:	0e 94 38 04 	call	0x870	; 0x870 <H_Led_On>
		H_Led_Off(BLU_LED);
 298:	81 e0       	ldi	r24, 0x01	; 1
 29a:	0e 94 4d 04 	call	0x89a	; 0x89a <H_Led_Off>
		H_Lcd_WriteCommand(0b00000001);
 29e:	81 e0       	ldi	r24, 0x01	; 1
 2a0:	0e 94 85 03 	call	0x70a	; 0x70a <H_Lcd_WriteCommand>
		
		H_Ssd_WriteNum(1);
 2a4:	81 e0       	ldi	r24, 0x01	; 1
 2a6:	0e 94 cd 05 	call	0xb9a	; 0xb9a <H_Ssd_WriteNum>
		H_Led_On(RED_LED);
 2aa:	83 e0       	ldi	r24, 0x03	; 3
 2ac:	0e 94 38 04 	call	0x870	; 0x870 <H_Led_On>
		H_Led_Off(BLU_LED);
 2b0:	81 e0       	ldi	r24, 0x01	; 1
 2b2:	0e 94 4d 04 	call	0x89a	; 0x89a <H_Led_Off>
		H_Lcd_WriteCommand(0b00000001);
 2b6:	81 e0       	ldi	r24, 0x01	; 1
 2b8:	0e 94 85 03 	call	0x70a	; 0x70a <H_Lcd_WriteCommand>
		
		H_Ssd_WriteNum(0);
 2bc:	80 e0       	ldi	r24, 0x00	; 0
 2be:	0e 94 cd 05 	call	0xb9a	; 0xb9a <H_Ssd_WriteNum>
		H_Led_On(RED_LED);
 2c2:	83 e0       	ldi	r24, 0x03	; 3
 2c4:	0e 94 38 04 	call	0x870	; 0x870 <H_Led_On>
		H_Led_Off(BLU_LED);
 2c8:	81 e0       	ldi	r24, 0x01	; 1
 2ca:	0e 94 4d 04 	call	0x89a	; 0x89a <H_Led_Off>
		H_Lcd_WriteCommand(0b00000001);
 2ce:	81 e0       	ldi	r24, 0x01	; 1
 2d0:	0e 94 85 03 	call	0x70a	; 0x70a <H_Lcd_WriteCommand>
		
		/*		green light                 */
		
		
		
		H_Led_Off(RED_LED);
 2d4:	83 e0       	ldi	r24, 0x03	; 3
 2d6:	0e 94 4d 04 	call	0x89a	; 0x89a <H_Led_Off>
		H_Led_Off(BLU_LED);
 2da:	81 e0       	ldi	r24, 0x01	; 1
 2dc:	0e 94 4d 04 	call	0x89a	; 0x89a <H_Led_Off>
		H_Led_On(GRN_LED);
 2e0:	82 e0       	ldi	r24, 0x02	; 2
 2e2:	0e 94 38 04 	call	0x870	; 0x870 <H_Led_On>
		H_Lcd_GoTo(0,6);
 2e6:	66 e0       	ldi	r22, 0x06	; 6
 2e8:	80 e0       	ldi	r24, 0x00	; 0
 2ea:	0e 94 0e 04 	call	0x81c	; 0x81c <H_Lcd_GoTo>
		H_Lcd_WriteString("move");
 2ee:	85 e6       	ldi	r24, 0x65	; 101
 2f0:	90 e0       	ldi	r25, 0x00	; 0
 2f2:	0e 94 f8 03 	call	0x7f0	; 0x7f0 <H_Lcd_WriteString>
		H_Buzzer_Once();
 2f6:	0e 94 dc 02 	call	0x5b8	; 0x5b8 <H_Buzzer_Once>
		H_Ssd_WriteNum(20);
 2fa:	84 e1       	ldi	r24, 0x14	; 20
 2fc:	0e 94 cd 05 	call	0xb9a	; 0xb9a <H_Ssd_WriteNum>
		
		H_Lcd_WriteCommand(0b00000001);
 300:	81 e0       	ldi	r24, 0x01	; 1
 302:	0e 94 85 03 	call	0x70a	; 0x70a <H_Lcd_WriteCommand>
		
		H_Lcd_GoTo(0,6);
 306:	66 e0       	ldi	r22, 0x06	; 6
 308:	80 e0       	ldi	r24, 0x00	; 0
 30a:	0e 94 0e 04 	call	0x81c	; 0x81c <H_Lcd_GoTo>
		H_Lcd_WriteString("move");
 30e:	85 e6       	ldi	r24, 0x65	; 101
 310:	90 e0       	ldi	r25, 0x00	; 0
 312:	0e 94 f8 03 	call	0x7f0	; 0x7f0 <H_Lcd_WriteString>
		H_Ssd_WriteNum(19);
 316:	83 e1       	ldi	r24, 0x13	; 19
 318:	0e 94 cd 05 	call	0xb9a	; 0xb9a <H_Ssd_WriteNum>
		H_Led_On(GRN_LED);
 31c:	82 e0       	ldi	r24, 0x02	; 2
 31e:	0e 94 38 04 	call	0x870	; 0x870 <H_Led_On>
		H_Led_Off(RED_LED);
 322:	83 e0       	ldi	r24, 0x03	; 3
 324:	0e 94 4d 04 	call	0x89a	; 0x89a <H_Led_Off>
		H_Led_Off(BLU_LED);
 328:	81 e0       	ldi	r24, 0x01	; 1
 32a:	0e 94 4d 04 	call	0x89a	; 0x89a <H_Led_Off>
		
		H_Ssd_WriteNum(18);
 32e:	82 e1       	ldi	r24, 0x12	; 18
 330:	0e 94 cd 05 	call	0xb9a	; 0xb9a <H_Ssd_WriteNum>
		H_Led_On(GRN_LED);
 334:	82 e0       	ldi	r24, 0x02	; 2
 336:	0e 94 38 04 	call	0x870	; 0x870 <H_Led_On>
		H_Led_Off(RED_LED);
 33a:	83 e0       	ldi	r24, 0x03	; 3
 33c:	0e 94 4d 04 	call	0x89a	; 0x89a <H_Led_Off>
		H_Led_Off(BLU_LED);
 340:	81 e0       	ldi	r24, 0x01	; 1
 342:	0e 94 4d 04 	call	0x89a	; 0x89a <H_Led_Off>
		
		H_Ssd_WriteNum(17);
 346:	81 e1       	ldi	r24, 0x11	; 17
 348:	0e 94 cd 05 	call	0xb9a	; 0xb9a <H_Ssd_WriteNum>
		H_Led_On(GRN_LED);
 34c:	82 e0       	ldi	r24, 0x02	; 2
 34e:	0e 94 38 04 	call	0x870	; 0x870 <H_Led_On>
		H_Led_Off(RED_LED);
 352:	83 e0       	ldi	r24, 0x03	; 3
 354:	0e 94 4d 04 	call	0x89a	; 0x89a <H_Led_Off>
		H_Led_Off(BLU_LED);
 358:	81 e0       	ldi	r24, 0x01	; 1
 35a:	0e 94 4d 04 	call	0x89a	; 0x89a <H_Led_Off>
		
		H_Ssd_WriteNum(16);
 35e:	80 e1       	ldi	r24, 0x10	; 16
 360:	0e 94 cd 05 	call	0xb9a	; 0xb9a <H_Ssd_WriteNum>
		H_Led_On(GRN_LED);
 364:	82 e0       	ldi	r24, 0x02	; 2
 366:	0e 94 38 04 	call	0x870	; 0x870 <H_Led_On>
		H_Led_Off(RED_LED);
 36a:	83 e0       	ldi	r24, 0x03	; 3
 36c:	0e 94 4d 04 	call	0x89a	; 0x89a <H_Led_Off>
		H_Led_Off(BLU_LED);
 370:	81 e0       	ldi	r24, 0x01	; 1
 372:	0e 94 4d 04 	call	0x89a	; 0x89a <H_Led_Off>
		
		H_Ssd_WriteNum(15);
 376:	8f e0       	ldi	r24, 0x0F	; 15
 378:	0e 94 cd 05 	call	0xb9a	; 0xb9a <H_Ssd_WriteNum>
		H_Led_On(GRN_LED);
 37c:	82 e0       	ldi	r24, 0x02	; 2
 37e:	0e 94 38 04 	call	0x870	; 0x870 <H_Led_On>
		H_Led_Off(RED_LED);
 382:	83 e0       	ldi	r24, 0x03	; 3
 384:	0e 94 4d 04 	call	0x89a	; 0x89a <H_Led_Off>
		H_Led_Off(BLU_LED);
 388:	81 e0       	ldi	r24, 0x01	; 1
 38a:	0e 94 4d 04 	call	0x89a	; 0x89a <H_Led_Off>
		
		H_Ssd_WriteNum(14);
 38e:	8e e0       	ldi	r24, 0x0E	; 14
 390:	0e 94 cd 05 	call	0xb9a	; 0xb9a <H_Ssd_WriteNum>
		H_Led_On(GRN_LED);
 394:	82 e0       	ldi	r24, 0x02	; 2
 396:	0e 94 38 04 	call	0x870	; 0x870 <H_Led_On>
		H_Led_Off(RED_LED);
 39a:	83 e0       	ldi	r24, 0x03	; 3
 39c:	0e 94 4d 04 	call	0x89a	; 0x89a <H_Led_Off>
		H_Led_Off(BLU_LED);
 3a0:	81 e0       	ldi	r24, 0x01	; 1
 3a2:	0e 94 4d 04 	call	0x89a	; 0x89a <H_Led_Off>
		
		H_Ssd_WriteNum(13);
 3a6:	8d e0       	ldi	r24, 0x0D	; 13
 3a8:	0e 94 cd 05 	call	0xb9a	; 0xb9a <H_Ssd_WriteNum>
		H_Led_On(GRN_LED);
 3ac:	82 e0       	ldi	r24, 0x02	; 2
 3ae:	0e 94 38 04 	call	0x870	; 0x870 <H_Led_On>
		H_Led_Off(RED_LED);
 3b2:	83 e0       	ldi	r24, 0x03	; 3
 3b4:	0e 94 4d 04 	call	0x89a	; 0x89a <H_Led_Off>
		H_Led_Off(BLU_LED);
 3b8:	81 e0       	ldi	r24, 0x01	; 1
 3ba:	0e 94 4d 04 	call	0x89a	; 0x89a <H_Led_Off>
		
		H_Ssd_WriteNum(12);
 3be:	8c e0       	ldi	r24, 0x0C	; 12
 3c0:	0e 94 cd 05 	call	0xb9a	; 0xb9a <H_Ssd_WriteNum>
		H_Led_On(GRN_LED);
 3c4:	82 e0       	ldi	r24, 0x02	; 2
 3c6:	0e 94 38 04 	call	0x870	; 0x870 <H_Led_On>
		H_Led_Off(RED_LED);
 3ca:	83 e0       	ldi	r24, 0x03	; 3
 3cc:	0e 94 4d 04 	call	0x89a	; 0x89a <H_Led_Off>
		H_Led_Off(BLU_LED);
 3d0:	81 e0       	ldi	r24, 0x01	; 1
 3d2:	0e 94 4d 04 	call	0x89a	; 0x89a <H_Led_Off>
		
		H_Ssd_WriteNum(11);
 3d6:	8b e0       	ldi	r24, 0x0B	; 11
 3d8:	0e 94 cd 05 	call	0xb9a	; 0xb9a <H_Ssd_WriteNum>
		H_Led_On(GRN_LED);
 3dc:	82 e0       	ldi	r24, 0x02	; 2
 3de:	0e 94 38 04 	call	0x870	; 0x870 <H_Led_On>
		H_Led_Off(RED_LED);
 3e2:	83 e0       	ldi	r24, 0x03	; 3
 3e4:	0e 94 4d 04 	call	0x89a	; 0x89a <H_Led_Off>
		H_Led_Off(BLU_LED);
 3e8:	81 e0       	ldi	r24, 0x01	; 1
 3ea:	0e 94 4d 04 	call	0x89a	; 0x89a <H_Led_Off>
		
		H_Ssd_WriteNum(10);
 3ee:	8a e0       	ldi	r24, 0x0A	; 10
 3f0:	0e 94 cd 05 	call	0xb9a	; 0xb9a <H_Ssd_WriteNum>
		H_Led_On(GRN_LED);
 3f4:	82 e0       	ldi	r24, 0x02	; 2
 3f6:	0e 94 38 04 	call	0x870	; 0x870 <H_Led_On>
		H_Led_Off(RED_LED);
 3fa:	83 e0       	ldi	r24, 0x03	; 3
 3fc:	0e 94 4d 04 	call	0x89a	; 0x89a <H_Led_Off>
		H_Led_Off(BLU_LED);
 400:	81 e0       	ldi	r24, 0x01	; 1
 402:	0e 94 4d 04 	call	0x89a	; 0x89a <H_Led_Off>
		
		H_Ssd_WriteNum(9);
 406:	89 e0       	ldi	r24, 0x09	; 9
 408:	0e 94 cd 05 	call	0xb9a	; 0xb9a <H_Ssd_WriteNum>
		H_Led_On(GRN_LED);
 40c:	82 e0       	ldi	r24, 0x02	; 2
 40e:	0e 94 38 04 	call	0x870	; 0x870 <H_Led_On>
		H_Led_Off(RED_LED);
 412:	83 e0       	ldi	r24, 0x03	; 3
 414:	0e 94 4d 04 	call	0x89a	; 0x89a <H_Led_Off>
		H_Led_Off(BLU_LED);
 418:	81 e0       	ldi	r24, 0x01	; 1
 41a:	0e 94 4d 04 	call	0x89a	; 0x89a <H_Led_Off>
		
		H_Ssd_WriteNum(8);
 41e:	88 e0       	ldi	r24, 0x08	; 8
 420:	0e 94 cd 05 	call	0xb9a	; 0xb9a <H_Ssd_WriteNum>
		H_Led_On(GRN_LED);
 424:	82 e0       	ldi	r24, 0x02	; 2
 426:	0e 94 38 04 	call	0x870	; 0x870 <H_Led_On>
		H_Led_Off(RED_LED);
 42a:	83 e0       	ldi	r24, 0x03	; 3
 42c:	0e 94 4d 04 	call	0x89a	; 0x89a <H_Led_Off>
		H_Led_Off(BLU_LED);
 430:	81 e0       	ldi	r24, 0x01	; 1
 432:	0e 94 4d 04 	call	0x89a	; 0x89a <H_Led_Off>
		
		H_Ssd_WriteNum(7);
 436:	87 e0       	ldi	r24, 0x07	; 7
 438:	0e 94 cd 05 	call	0xb9a	; 0xb9a <H_Ssd_WriteNum>
		H_Led_On(GRN_LED);
 43c:	82 e0       	ldi	r24, 0x02	; 2
 43e:	0e 94 38 04 	call	0x870	; 0x870 <H_Led_On>
		H_Led_Off(RED_LED);
 442:	83 e0       	ldi	r24, 0x03	; 3
 444:	0e 94 4d 04 	call	0x89a	; 0x89a <H_Led_Off>
		H_Led_Off(BLU_LED);
 448:	81 e0       	ldi	r24, 0x01	; 1
 44a:	0e 94 4d 04 	call	0x89a	; 0x89a <H_Led_Off>
		
		H_Ssd_WriteNum(6);
 44e:	86 e0       	ldi	r24, 0x06	; 6
 450:	0e 94 cd 05 	call	0xb9a	; 0xb9a <H_Ssd_WriteNum>
		H_Led_On(GRN_LED);
 454:	82 e0       	ldi	r24, 0x02	; 2
 456:	0e 94 38 04 	call	0x870	; 0x870 <H_Led_On>
		H_Led_Off(RED_LED);
 45a:	83 e0       	ldi	r24, 0x03	; 3
 45c:	0e 94 4d 04 	call	0x89a	; 0x89a <H_Led_Off>
		H_Led_Off(BLU_LED);
 460:	81 e0       	ldi	r24, 0x01	; 1
 462:	0e 94 4d 04 	call	0x89a	; 0x89a <H_Led_Off>
		
		H_Ssd_WriteNum(5);
 466:	85 e0       	ldi	r24, 0x05	; 5
 468:	0e 94 cd 05 	call	0xb9a	; 0xb9a <H_Ssd_WriteNum>
		H_Led_On(GRN_LED);
 46c:	82 e0       	ldi	r24, 0x02	; 2
 46e:	0e 94 38 04 	call	0x870	; 0x870 <H_Led_On>
		H_Led_Off(RED_LED);
 472:	83 e0       	ldi	r24, 0x03	; 3
 474:	0e 94 4d 04 	call	0x89a	; 0x89a <H_Led_Off>
		H_Led_Off(BLU_LED);
 478:	81 e0       	ldi	r24, 0x01	; 1
 47a:	0e 94 4d 04 	call	0x89a	; 0x89a <H_Led_Off>
		
		H_Ssd_WriteNum(4);
 47e:	84 e0       	ldi	r24, 0x04	; 4
 480:	0e 94 cd 05 	call	0xb9a	; 0xb9a <H_Ssd_WriteNum>
		H_Led_On(GRN_LED);
 484:	82 e0       	ldi	r24, 0x02	; 2
 486:	0e 94 38 04 	call	0x870	; 0x870 <H_Led_On>
		H_Led_Off(RED_LED);
 48a:	83 e0       	ldi	r24, 0x03	; 3
 48c:	0e 94 4d 04 	call	0x89a	; 0x89a <H_Led_Off>
		H_Led_Off(BLU_LED);
 490:	81 e0       	ldi	r24, 0x01	; 1
 492:	0e 94 4d 04 	call	0x89a	; 0x89a <H_Led_Off>
		
		H_Ssd_WriteNum(3);
 496:	83 e0       	ldi	r24, 0x03	; 3
 498:	0e 94 cd 05 	call	0xb9a	; 0xb9a <H_Ssd_WriteNum>
		H_Led_On(GRN_LED);
 49c:	82 e0       	ldi	r24, 0x02	; 2
 49e:	0e 94 38 04 	call	0x870	; 0x870 <H_Led_On>
		H_Led_Off(RED_LED);
 4a2:	83 e0       	ldi	r24, 0x03	; 3
 4a4:	0e 94 4d 04 	call	0x89a	; 0x89a <H_Led_Off>
		H_Led_Off(BLU_LED);
 4a8:	81 e0       	ldi	r24, 0x01	; 1
 4aa:	0e 94 4d 04 	call	0x89a	; 0x89a <H_Led_Off>
		
		H_Ssd_WriteNum(2);
 4ae:	82 e0       	ldi	r24, 0x02	; 2
 4b0:	0e 94 cd 05 	call	0xb9a	; 0xb9a <H_Ssd_WriteNum>
		H_Led_On(GRN_LED);
 4b4:	82 e0       	ldi	r24, 0x02	; 2
 4b6:	0e 94 38 04 	call	0x870	; 0x870 <H_Led_On>
		H_Led_Off(RED_LED);
 4ba:	83 e0       	ldi	r24, 0x03	; 3
 4bc:	0e 94 4d 04 	call	0x89a	; 0x89a <H_Led_Off>
		H_Led_Off(BLU_LED);
 4c0:	81 e0       	ldi	r24, 0x01	; 1
 4c2:	0e 94 4d 04 	call	0x89a	; 0x89a <H_Led_Off>
		
		H_Ssd_WriteNum(1);
 4c6:	81 e0       	ldi	r24, 0x01	; 1
 4c8:	0e 94 cd 05 	call	0xb9a	; 0xb9a <H_Ssd_WriteNum>
		H_Led_On(GRN_LED);
 4cc:	82 e0       	ldi	r24, 0x02	; 2
 4ce:	0e 94 38 04 	call	0x870	; 0x870 <H_Led_On>
		H_Led_Off(RED_LED);
 4d2:	83 e0       	ldi	r24, 0x03	; 3
 4d4:	0e 94 4d 04 	call	0x89a	; 0x89a <H_Led_Off>
		H_Led_Off(BLU_LED);
 4d8:	81 e0       	ldi	r24, 0x01	; 1
 4da:	0e 94 4d 04 	call	0x89a	; 0x89a <H_Led_Off>
		
		H_Ssd_WriteNum(0);
 4de:	80 e0       	ldi	r24, 0x00	; 0
 4e0:	0e 94 cd 05 	call	0xb9a	; 0xb9a <H_Ssd_WriteNum>
		H_Led_On(GRN_LED);
 4e4:	82 e0       	ldi	r24, 0x02	; 2
 4e6:	0e 94 38 04 	call	0x870	; 0x870 <H_Led_On>
		H_Led_Off(RED_LED);
 4ea:	83 e0       	ldi	r24, 0x03	; 3
 4ec:	0e 94 4d 04 	call	0x89a	; 0x89a <H_Led_Off>
		H_Led_Off(BLU_LED);
 4f0:	81 e0       	ldi	r24, 0x01	; 1
 4f2:	0e 94 4d 04 	call	0x89a	; 0x89a <H_Led_Off>
		
		/*		blue light        */
		
		
		H_Lcd_GoTo(0,4);
 4f6:	64 e0       	ldi	r22, 0x04	; 4
 4f8:	80 e0       	ldi	r24, 0x00	; 0
 4fa:	0e 94 0e 04 	call	0x81c	; 0x81c <H_Lcd_GoTo>
		H_Lcd_WriteString("slow down");
 4fe:	8a e6       	ldi	r24, 0x6A	; 106
 500:	90 e0       	ldi	r25, 0x00	; 0
 502:	0e 94 f8 03 	call	0x7f0	; 0x7f0 <H_Lcd_WriteString>
		H_Led_On(BLU_LED);
 506:	81 e0       	ldi	r24, 0x01	; 1
 508:	0e 94 38 04 	call	0x870	; 0x870 <H_Led_On>
		H_Led_Off(RED_LED);
 50c:	83 e0       	ldi	r24, 0x03	; 3
 50e:	0e 94 4d 04 	call	0x89a	; 0x89a <H_Led_Off>
		H_Led_Off(GRN_LED);
 512:	82 e0       	ldi	r24, 0x02	; 2
 514:	0e 94 4d 04 	call	0x89a	; 0x89a <H_Led_Off>
		H_Ssd_WriteNum(3);
 518:	83 e0       	ldi	r24, 0x03	; 3
 51a:	0e 94 cd 05 	call	0xb9a	; 0xb9a <H_Ssd_WriteNum>
		H_Buzzer_Triple();
 51e:	0e 94 fc 02 	call	0x5f8	; 0x5f8 <H_Buzzer_Triple>
		
		H_Lcd_WriteCommand(0b00000001);
 522:	81 e0       	ldi	r24, 0x01	; 1
 524:	0e 94 85 03 	call	0x70a	; 0x70a <H_Lcd_WriteCommand>
		
		H_Lcd_GoTo(0,4);
 528:	64 e0       	ldi	r22, 0x04	; 4
 52a:	80 e0       	ldi	r24, 0x00	; 0
 52c:	0e 94 0e 04 	call	0x81c	; 0x81c <H_Lcd_GoTo>
		H_Lcd_WriteString("slow down");
 530:	8a e6       	ldi	r24, 0x6A	; 106
 532:	90 e0       	ldi	r25, 0x00	; 0
 534:	0e 94 f8 03 	call	0x7f0	; 0x7f0 <H_Lcd_WriteString>
		H_Ssd_WriteNum(2);
 538:	82 e0       	ldi	r24, 0x02	; 2
 53a:	0e 94 cd 05 	call	0xb9a	; 0xb9a <H_Ssd_WriteNum>
		H_Buzzer_Twice();
 53e:	0e 94 ee 02 	call	0x5dc	; 0x5dc <H_Buzzer_Twice>
		H_Led_On(BLU_LED);
 542:	81 e0       	ldi	r24, 0x01	; 1
 544:	0e 94 38 04 	call	0x870	; 0x870 <H_Led_On>
		H_Led_Off(RED_LED);
 548:	83 e0       	ldi	r24, 0x03	; 3
 54a:	0e 94 4d 04 	call	0x89a	; 0x89a <H_Led_Off>
		H_Led_Off(GRN_LED);
 54e:	82 e0       	ldi	r24, 0x02	; 2
 550:	0e 94 4d 04 	call	0x89a	; 0x89a <H_Led_Off>
		
		
		H_Lcd_WriteCommand(0b00000001);
 554:	81 e0       	ldi	r24, 0x01	; 1
 556:	0e 94 85 03 	call	0x70a	; 0x70a <H_Lcd_WriteCommand>
		H_Ssd_WriteNum(1);
 55a:	81 e0       	ldi	r24, 0x01	; 1
 55c:	0e 94 cd 05 	call	0xb9a	; 0xb9a <H_Ssd_WriteNum>
		H_Buzzer_Once();
 560:	0e 94 dc 02 	call	0x5b8	; 0x5b8 <H_Buzzer_Once>
		H_Led_On(BLU_LED);
 564:	81 e0       	ldi	r24, 0x01	; 1
 566:	0e 94 38 04 	call	0x870	; 0x870 <H_Led_On>
		H_Led_Off(RED_LED);
 56a:	83 e0       	ldi	r24, 0x03	; 3
 56c:	0e 94 4d 04 	call	0x89a	; 0x89a <H_Led_Off>
		H_Led_Off(GRN_LED);
 570:	82 e0       	ldi	r24, 0x02	; 2
 572:	0e 94 4d 04 	call	0x89a	; 0x89a <H_Led_Off>
		
		
		
		H_Lcd_WriteCommand(0b00000001);
 576:	81 e0       	ldi	r24, 0x01	; 1
 578:	0e 94 85 03 	call	0x70a	; 0x70a <H_Lcd_WriteCommand>
		H_Ssd_WriteNum(0);
 57c:	80 e0       	ldi	r24, 0x00	; 0
 57e:	0e 94 cd 05 	call	0xb9a	; 0xb9a <H_Ssd_WriteNum>
		H_Buzzer_On();
 582:	0e 94 d2 02 	call	0x5a4	; 0x5a4 <H_Buzzer_On>
		H_Led_On(BLU_LED);
 586:	81 e0       	ldi	r24, 0x01	; 1
 588:	0e 94 38 04 	call	0x870	; 0x870 <H_Led_On>
		H_Led_Off(RED_LED);
 58c:	83 e0       	ldi	r24, 0x03	; 3
 58e:	0e 94 4d 04 	call	0x89a	; 0x89a <H_Led_Off>
		H_Led_Off(GRN_LED);
 592:	82 e0       	ldi	r24, 0x02	; 2
 594:	0e 94 4d 04 	call	0x89a	; 0x89a <H_Led_Off>
 598:	8f cd       	rjmp	.-1250   	; 0xb8 <main+0x22>

0000059a <H_Buzzer_Init>:
 59a:	61 e0       	ldi	r22, 0x01	; 1
 59c:	83 e2       	ldi	r24, 0x23	; 35
 59e:	0e 94 08 06 	call	0xc10	; 0xc10 <M_Dio_PinMode>
 5a2:	08 95       	ret

000005a4 <H_Buzzer_On>:
 5a4:	61 e0       	ldi	r22, 0x01	; 1
 5a6:	83 e2       	ldi	r24, 0x23	; 35
 5a8:	0e 94 91 06 	call	0xd22	; 0xd22 <M_Dio_PinWrite>
 5ac:	08 95       	ret

000005ae <H_Buzzer_Off>:
 5ae:	60 e0       	ldi	r22, 0x00	; 0
 5b0:	83 e2       	ldi	r24, 0x23	; 35
 5b2:	0e 94 91 06 	call	0xd22	; 0xd22 <M_Dio_PinWrite>
 5b6:	08 95       	ret

000005b8 <H_Buzzer_Once>:
 5b8:	61 e0       	ldi	r22, 0x01	; 1
 5ba:	83 e2       	ldi	r24, 0x23	; 35
 5bc:	0e 94 91 06 	call	0xd22	; 0xd22 <M_Dio_PinWrite>
	#else
		//round up by default
		__ticks_dc = (uint32_t)(ceil(fabs(__tmp)));
	#endif

	__builtin_avr_delay_cycles(__ticks_dc);
 5c0:	2f ef       	ldi	r18, 0xFF	; 255
 5c2:	8d ee       	ldi	r24, 0xED	; 237
 5c4:	92 e0       	ldi	r25, 0x02	; 2
 5c6:	21 50       	subi	r18, 0x01	; 1
 5c8:	80 40       	sbci	r24, 0x00	; 0
 5ca:	90 40       	sbci	r25, 0x00	; 0
 5cc:	e1 f7       	brne	.-8      	; 0x5c6 <H_Buzzer_Once+0xe>
 5ce:	00 c0       	rjmp	.+0      	; 0x5d0 <H_Buzzer_Once+0x18>
 5d0:	00 00       	nop
 5d2:	60 e0       	ldi	r22, 0x00	; 0
 5d4:	83 e2       	ldi	r24, 0x23	; 35
 5d6:	0e 94 91 06 	call	0xd22	; 0xd22 <M_Dio_PinWrite>
 5da:	08 95       	ret

000005dc <H_Buzzer_Twice>:
 5dc:	0e 94 dc 02 	call	0x5b8	; 0x5b8 <H_Buzzer_Once>
 5e0:	2f ef       	ldi	r18, 0xFF	; 255
 5e2:	83 ef       	ldi	r24, 0xF3	; 243
 5e4:	91 e0       	ldi	r25, 0x01	; 1
 5e6:	21 50       	subi	r18, 0x01	; 1
 5e8:	80 40       	sbci	r24, 0x00	; 0
 5ea:	90 40       	sbci	r25, 0x00	; 0
 5ec:	e1 f7       	brne	.-8      	; 0x5e6 <H_Buzzer_Twice+0xa>
 5ee:	00 c0       	rjmp	.+0      	; 0x5f0 <H_Buzzer_Twice+0x14>
 5f0:	00 00       	nop
 5f2:	0e 94 dc 02 	call	0x5b8	; 0x5b8 <H_Buzzer_Once>
 5f6:	08 95       	ret

000005f8 <H_Buzzer_Triple>:
 5f8:	0e 94 dc 02 	call	0x5b8	; 0x5b8 <H_Buzzer_Once>
 5fc:	2f ef       	ldi	r18, 0xFF	; 255
 5fe:	83 ef       	ldi	r24, 0xF3	; 243
 600:	91 e0       	ldi	r25, 0x01	; 1
 602:	21 50       	subi	r18, 0x01	; 1
 604:	80 40       	sbci	r24, 0x00	; 0
 606:	90 40       	sbci	r25, 0x00	; 0
 608:	e1 f7       	brne	.-8      	; 0x602 <H_Buzzer_Triple+0xa>
 60a:	00 c0       	rjmp	.+0      	; 0x60c <H_Buzzer_Triple+0x14>
 60c:	00 00       	nop
 60e:	0e 94 dc 02 	call	0x5b8	; 0x5b8 <H_Buzzer_Once>
 612:	2f ef       	ldi	r18, 0xFF	; 255
 614:	83 ef       	ldi	r24, 0xF3	; 243
 616:	91 e0       	ldi	r25, 0x01	; 1
 618:	21 50       	subi	r18, 0x01	; 1
 61a:	80 40       	sbci	r24, 0x00	; 0
 61c:	90 40       	sbci	r25, 0x00	; 0
 61e:	e1 f7       	brne	.-8      	; 0x618 <H_Buzzer_Triple+0x20>
 620:	00 c0       	rjmp	.+0      	; 0x622 <H_Buzzer_Triple+0x2a>
 622:	00 00       	nop
 624:	0e 94 dc 02 	call	0x5b8	; 0x5b8 <H_Buzzer_Once>
 628:	08 95       	ret

0000062a <H_KeyPad_Init>:
 62a:	61 e0       	ldi	r22, 0x01	; 1
 62c:	88 e1       	ldi	r24, 0x18	; 24
 62e:	0e 94 08 06 	call	0xc10	; 0xc10 <M_Dio_PinMode>
 632:	61 e0       	ldi	r22, 0x01	; 1
 634:	89 e1       	ldi	r24, 0x19	; 25
 636:	0e 94 08 06 	call	0xc10	; 0xc10 <M_Dio_PinMode>
 63a:	61 e0       	ldi	r22, 0x01	; 1
 63c:	8a e1       	ldi	r24, 0x1A	; 26
 63e:	0e 94 08 06 	call	0xc10	; 0xc10 <M_Dio_PinMode>
 642:	61 e0       	ldi	r22, 0x01	; 1
 644:	8b e1       	ldi	r24, 0x1B	; 27
 646:	0e 94 08 06 	call	0xc10	; 0xc10 <M_Dio_PinMode>
 64a:	60 e0       	ldi	r22, 0x00	; 0
 64c:	8a e2       	ldi	r24, 0x2A	; 42
 64e:	0e 94 08 06 	call	0xc10	; 0xc10 <M_Dio_PinMode>
 652:	60 e0       	ldi	r22, 0x00	; 0
 654:	8b e2       	ldi	r24, 0x2B	; 43
 656:	0e 94 08 06 	call	0xc10	; 0xc10 <M_Dio_PinMode>
 65a:	60 e0       	ldi	r22, 0x00	; 0
 65c:	8c e2       	ldi	r24, 0x2C	; 44
 65e:	0e 94 08 06 	call	0xc10	; 0xc10 <M_Dio_PinMode>
 662:	60 e0       	ldi	r22, 0x00	; 0
 664:	8d e2       	ldi	r24, 0x2D	; 45
 666:	0e 94 08 06 	call	0xc10	; 0xc10 <M_Dio_PinMode>
 66a:	61 e0       	ldi	r22, 0x01	; 1
 66c:	88 e1       	ldi	r24, 0x18	; 24
 66e:	0e 94 91 06 	call	0xd22	; 0xd22 <M_Dio_PinWrite>
 672:	61 e0       	ldi	r22, 0x01	; 1
 674:	89 e1       	ldi	r24, 0x19	; 25
 676:	0e 94 91 06 	call	0xd22	; 0xd22 <M_Dio_PinWrite>
 67a:	61 e0       	ldi	r22, 0x01	; 1
 67c:	8a e1       	ldi	r24, 0x1A	; 26
 67e:	0e 94 91 06 	call	0xd22	; 0xd22 <M_Dio_PinWrite>
 682:	61 e0       	ldi	r22, 0x01	; 1
 684:	8b e1       	ldi	r24, 0x1B	; 27
 686:	0e 94 91 06 	call	0xd22	; 0xd22 <M_Dio_PinWrite>
 68a:	08 95       	ret

0000068c <H_Lcd_WriteCharacter>:
	
}
*/
void H_Lcd_Clr(void)
{
	H_Lcd_WriteCommand(LCD_CLR);
 68c:	cf 93       	push	r28
 68e:	c8 2f       	mov	r28, r24
 690:	61 e0       	ldi	r22, 0x01	; 1
 692:	8b e0       	ldi	r24, 0x0B	; 11
 694:	0e 94 91 06 	call	0xd22	; 0xd22 <M_Dio_PinWrite>
 698:	8b b3       	in	r24, 0x1b	; 27
 69a:	9c 2f       	mov	r25, r28
 69c:	96 95       	lsr	r25
 69e:	98 77       	andi	r25, 0x78	; 120
 6a0:	87 78       	andi	r24, 0x87	; 135
 6a2:	89 2b       	or	r24, r25
 6a4:	8b bb       	out	0x1b, r24	; 27
 6a6:	61 e0       	ldi	r22, 0x01	; 1
 6a8:	8c e0       	ldi	r24, 0x0C	; 12
 6aa:	0e 94 91 06 	call	0xd22	; 0xd22 <M_Dio_PinWrite>
 6ae:	8f e9       	ldi	r24, 0x9F	; 159
 6b0:	9f e0       	ldi	r25, 0x0F	; 15
 6b2:	01 97       	sbiw	r24, 0x01	; 1
 6b4:	f1 f7       	brne	.-4      	; 0x6b2 <H_Lcd_WriteCharacter+0x26>
 6b6:	00 c0       	rjmp	.+0      	; 0x6b8 <H_Lcd_WriteCharacter+0x2c>
 6b8:	00 00       	nop
 6ba:	60 e0       	ldi	r22, 0x00	; 0
 6bc:	8c e0       	ldi	r24, 0x0C	; 12
 6be:	0e 94 91 06 	call	0xd22	; 0xd22 <M_Dio_PinWrite>
 6c2:	8f e1       	ldi	r24, 0x1F	; 31
 6c4:	9e e4       	ldi	r25, 0x4E	; 78
 6c6:	01 97       	sbiw	r24, 0x01	; 1
 6c8:	f1 f7       	brne	.-4      	; 0x6c6 <H_Lcd_WriteCharacter+0x3a>
 6ca:	00 c0       	rjmp	.+0      	; 0x6cc <H_Lcd_WriteCharacter+0x40>
 6cc:	00 00       	nop
 6ce:	8b b3       	in	r24, 0x1b	; 27
 6d0:	cc 0f       	add	r28, r28
 6d2:	cc 0f       	add	r28, r28
 6d4:	cc 0f       	add	r28, r28
 6d6:	c8 77       	andi	r28, 0x78	; 120
 6d8:	87 78       	andi	r24, 0x87	; 135
 6da:	c8 2b       	or	r28, r24
 6dc:	cb bb       	out	0x1b, r28	; 27
 6de:	61 e0       	ldi	r22, 0x01	; 1
 6e0:	8c e0       	ldi	r24, 0x0C	; 12
 6e2:	0e 94 91 06 	call	0xd22	; 0xd22 <M_Dio_PinWrite>
 6e6:	8f e9       	ldi	r24, 0x9F	; 159
 6e8:	9f e0       	ldi	r25, 0x0F	; 15
 6ea:	01 97       	sbiw	r24, 0x01	; 1
 6ec:	f1 f7       	brne	.-4      	; 0x6ea <H_Lcd_WriteCharacter+0x5e>
 6ee:	00 c0       	rjmp	.+0      	; 0x6f0 <H_Lcd_WriteCharacter+0x64>
 6f0:	00 00       	nop
 6f2:	60 e0       	ldi	r22, 0x00	; 0
 6f4:	8c e0       	ldi	r24, 0x0C	; 12
 6f6:	0e 94 91 06 	call	0xd22	; 0xd22 <M_Dio_PinWrite>
 6fa:	8f e1       	ldi	r24, 0x1F	; 31
 6fc:	9e e4       	ldi	r25, 0x4E	; 78
 6fe:	01 97       	sbiw	r24, 0x01	; 1
 700:	f1 f7       	brne	.-4      	; 0x6fe <H_Lcd_WriteCharacter+0x72>
 702:	00 c0       	rjmp	.+0      	; 0x704 <H_Lcd_WriteCharacter+0x78>
 704:	00 00       	nop
 706:	cf 91       	pop	r28
 708:	08 95       	ret

0000070a <H_Lcd_WriteCommand>:
 70a:	cf 93       	push	r28
 70c:	c8 2f       	mov	r28, r24
 70e:	60 e0       	ldi	r22, 0x00	; 0
 710:	8b e0       	ldi	r24, 0x0B	; 11
 712:	0e 94 91 06 	call	0xd22	; 0xd22 <M_Dio_PinWrite>
 716:	8b b3       	in	r24, 0x1b	; 27
 718:	9c 2f       	mov	r25, r28
 71a:	96 95       	lsr	r25
 71c:	98 77       	andi	r25, 0x78	; 120
 71e:	87 78       	andi	r24, 0x87	; 135
 720:	89 2b       	or	r24, r25
 722:	8b bb       	out	0x1b, r24	; 27
 724:	61 e0       	ldi	r22, 0x01	; 1
 726:	8c e0       	ldi	r24, 0x0C	; 12
 728:	0e 94 91 06 	call	0xd22	; 0xd22 <M_Dio_PinWrite>
 72c:	8f e9       	ldi	r24, 0x9F	; 159
 72e:	9f e0       	ldi	r25, 0x0F	; 15
 730:	01 97       	sbiw	r24, 0x01	; 1
 732:	f1 f7       	brne	.-4      	; 0x730 <H_Lcd_WriteCommand+0x26>
 734:	00 c0       	rjmp	.+0      	; 0x736 <H_Lcd_WriteCommand+0x2c>
 736:	00 00       	nop
 738:	60 e0       	ldi	r22, 0x00	; 0
 73a:	8c e0       	ldi	r24, 0x0C	; 12
 73c:	0e 94 91 06 	call	0xd22	; 0xd22 <M_Dio_PinWrite>
 740:	8f e1       	ldi	r24, 0x1F	; 31
 742:	9e e4       	ldi	r25, 0x4E	; 78
 744:	01 97       	sbiw	r24, 0x01	; 1
 746:	f1 f7       	brne	.-4      	; 0x744 <H_Lcd_WriteCommand+0x3a>
 748:	00 c0       	rjmp	.+0      	; 0x74a <H_Lcd_WriteCommand+0x40>
 74a:	00 00       	nop
 74c:	8b b3       	in	r24, 0x1b	; 27
 74e:	cc 0f       	add	r28, r28
 750:	cc 0f       	add	r28, r28
 752:	cc 0f       	add	r28, r28
 754:	c8 77       	andi	r28, 0x78	; 120
 756:	87 78       	andi	r24, 0x87	; 135
 758:	c8 2b       	or	r28, r24
 75a:	cb bb       	out	0x1b, r28	; 27
 75c:	61 e0       	ldi	r22, 0x01	; 1
 75e:	8c e0       	ldi	r24, 0x0C	; 12
 760:	0e 94 91 06 	call	0xd22	; 0xd22 <M_Dio_PinWrite>
 764:	8f e9       	ldi	r24, 0x9F	; 159
 766:	9f e0       	ldi	r25, 0x0F	; 15
 768:	01 97       	sbiw	r24, 0x01	; 1
 76a:	f1 f7       	brne	.-4      	; 0x768 <H_Lcd_WriteCommand+0x5e>
 76c:	00 c0       	rjmp	.+0      	; 0x76e <H_Lcd_WriteCommand+0x64>
 76e:	00 00       	nop
 770:	60 e0       	ldi	r22, 0x00	; 0
 772:	8c e0       	ldi	r24, 0x0C	; 12
 774:	0e 94 91 06 	call	0xd22	; 0xd22 <M_Dio_PinWrite>
 778:	8f e1       	ldi	r24, 0x1F	; 31
 77a:	9e e4       	ldi	r25, 0x4E	; 78
 77c:	01 97       	sbiw	r24, 0x01	; 1
 77e:	f1 f7       	brne	.-4      	; 0x77c <H_Lcd_WriteCommand+0x72>
 780:	00 c0       	rjmp	.+0      	; 0x782 <H_Lcd_WriteCommand+0x78>
 782:	00 00       	nop
 784:	cf 91       	pop	r28
 786:	08 95       	ret

00000788 <H_Lcd_Init>:
 788:	61 e0       	ldi	r22, 0x01	; 1
 78a:	80 e1       	ldi	r24, 0x10	; 16
 78c:	0e 94 08 06 	call	0xc10	; 0xc10 <M_Dio_PinMode>
 790:	61 e0       	ldi	r22, 0x01	; 1
 792:	8f e0       	ldi	r24, 0x0F	; 15
 794:	0e 94 08 06 	call	0xc10	; 0xc10 <M_Dio_PinMode>
 798:	61 e0       	ldi	r22, 0x01	; 1
 79a:	8e e0       	ldi	r24, 0x0E	; 14
 79c:	0e 94 08 06 	call	0xc10	; 0xc10 <M_Dio_PinMode>
 7a0:	61 e0       	ldi	r22, 0x01	; 1
 7a2:	8d e0       	ldi	r24, 0x0D	; 13
 7a4:	0e 94 08 06 	call	0xc10	; 0xc10 <M_Dio_PinMode>
 7a8:	61 e0       	ldi	r22, 0x01	; 1
 7aa:	8c e0       	ldi	r24, 0x0C	; 12
 7ac:	0e 94 08 06 	call	0xc10	; 0xc10 <M_Dio_PinMode>
 7b0:	61 e0       	ldi	r22, 0x01	; 1
 7b2:	8b e0       	ldi	r24, 0x0B	; 11
 7b4:	0e 94 08 06 	call	0xc10	; 0xc10 <M_Dio_PinMode>
 7b8:	2f ef       	ldi	r18, 0xFF	; 255
 7ba:	83 ed       	ldi	r24, 0xD3	; 211
 7bc:	90 e3       	ldi	r25, 0x30	; 48
 7be:	21 50       	subi	r18, 0x01	; 1
 7c0:	80 40       	sbci	r24, 0x00	; 0
 7c2:	90 40       	sbci	r25, 0x00	; 0
 7c4:	e1 f7       	brne	.-8      	; 0x7be <H_Lcd_Init+0x36>
 7c6:	00 c0       	rjmp	.+0      	; 0x7c8 <H_Lcd_Init+0x40>
 7c8:	00 00       	nop
 7ca:	83 e3       	ldi	r24, 0x33	; 51
 7cc:	0e 94 85 03 	call	0x70a	; 0x70a <H_Lcd_WriteCommand>
 7d0:	82 e3       	ldi	r24, 0x32	; 50
 7d2:	0e 94 85 03 	call	0x70a	; 0x70a <H_Lcd_WriteCommand>
 7d6:	88 e2       	ldi	r24, 0x28	; 40
 7d8:	0e 94 85 03 	call	0x70a	; 0x70a <H_Lcd_WriteCommand>
 7dc:	8c e0       	ldi	r24, 0x0C	; 12
 7de:	0e 94 85 03 	call	0x70a	; 0x70a <H_Lcd_WriteCommand>
 7e2:	81 e0       	ldi	r24, 0x01	; 1
 7e4:	0e 94 85 03 	call	0x70a	; 0x70a <H_Lcd_WriteCommand>
 7e8:	82 e0       	ldi	r24, 0x02	; 2
 7ea:	0e 94 85 03 	call	0x70a	; 0x70a <H_Lcd_WriteCommand>
 7ee:	08 95       	ret

000007f0 <H_Lcd_WriteString>:
 7f0:	0f 93       	push	r16
 7f2:	1f 93       	push	r17
 7f4:	cf 93       	push	r28
 7f6:	fc 01       	movw	r30, r24
 7f8:	80 81       	ld	r24, Z
 7fa:	88 23       	and	r24, r24
 7fc:	59 f0       	breq	.+22     	; 0x814 <__DATA_REGION_LENGTH__+0x14>
 7fe:	8f 01       	movw	r16, r30
 800:	c0 e0       	ldi	r28, 0x00	; 0
 802:	0e 94 46 03 	call	0x68c	; 0x68c <H_Lcd_WriteCharacter>
 806:	cf 5f       	subi	r28, 0xFF	; 255
 808:	f8 01       	movw	r30, r16
 80a:	ec 0f       	add	r30, r28
 80c:	f1 1d       	adc	r31, r1
 80e:	80 81       	ld	r24, Z
 810:	81 11       	cpse	r24, r1
 812:	f7 cf       	rjmp	.-18     	; 0x802 <__DATA_REGION_LENGTH__+0x2>
 814:	cf 91       	pop	r28
 816:	1f 91       	pop	r17
 818:	0f 91       	pop	r16
 81a:	08 95       	ret

0000081c <H_Lcd_GoTo>:
}

void H_Lcd_GoTo(u8 Local_u8_Row,u8 Local_u8_Col)
{
 81c:	cf 93       	push	r28
 81e:	df 93       	push	r29
 820:	00 d0       	rcall	.+0      	; 0x822 <H_Lcd_GoTo+0x6>
 822:	cd b7       	in	r28, 0x3d	; 61
 824:	de b7       	in	r29, 0x3e	; 62
	u8 Local_u8_arr [2] = {0x80,0xC0};
 826:	90 e8       	ldi	r25, 0x80	; 128
 828:	99 83       	std	Y+1, r25	; 0x01
 82a:	90 ec       	ldi	r25, 0xC0	; 192
 82c:	9a 83       	std	Y+2, r25	; 0x02
	H_Lcd_WriteCommand(Local_u8_arr[Local_u8_Row] + Local_u8_Col);
 82e:	fe 01       	movw	r30, r28
 830:	e8 0f       	add	r30, r24
 832:	f1 1d       	adc	r31, r1
 834:	81 81       	ldd	r24, Z+1	; 0x01
 836:	86 0f       	add	r24, r22
 838:	0e 94 85 03 	call	0x70a	; 0x70a <H_Lcd_WriteCommand>
}
 83c:	0f 90       	pop	r0
 83e:	0f 90       	pop	r0
 840:	df 91       	pop	r29
 842:	cf 91       	pop	r28
 844:	08 95       	ret

00000846 <H_Led_Init>:
 846:	82 30       	cpi	r24, 0x02	; 2
 848:	49 f0       	breq	.+18     	; 0x85c <H_Led_Init+0x16>
 84a:	83 30       	cpi	r24, 0x03	; 3
 84c:	61 f0       	breq	.+24     	; 0x866 <__stack+0x7>
 84e:	81 30       	cpi	r24, 0x01	; 1
 850:	71 f4       	brne	.+28     	; 0x86e <__stack+0xf>
 852:	61 e0       	ldi	r22, 0x01	; 1
 854:	80 e2       	ldi	r24, 0x20	; 32
 856:	0e 94 08 06 	call	0xc10	; 0xc10 <M_Dio_PinMode>
 85a:	08 95       	ret
 85c:	61 e0       	ldi	r22, 0x01	; 1
 85e:	8f e1       	ldi	r24, 0x1F	; 31
 860:	0e 94 08 06 	call	0xc10	; 0xc10 <M_Dio_PinMode>
 864:	08 95       	ret
 866:	61 e0       	ldi	r22, 0x01	; 1
 868:	8e e1       	ldi	r24, 0x1E	; 30
 86a:	0e 94 08 06 	call	0xc10	; 0xc10 <M_Dio_PinMode>
 86e:	08 95       	ret

00000870 <H_Led_On>:
 870:	82 30       	cpi	r24, 0x02	; 2
 872:	49 f0       	breq	.+18     	; 0x886 <H_Led_On+0x16>
 874:	83 30       	cpi	r24, 0x03	; 3
 876:	61 f0       	breq	.+24     	; 0x890 <H_Led_On+0x20>
 878:	81 30       	cpi	r24, 0x01	; 1
 87a:	71 f4       	brne	.+28     	; 0x898 <H_Led_On+0x28>
 87c:	61 e0       	ldi	r22, 0x01	; 1
 87e:	80 e2       	ldi	r24, 0x20	; 32
 880:	0e 94 91 06 	call	0xd22	; 0xd22 <M_Dio_PinWrite>
 884:	08 95       	ret
 886:	61 e0       	ldi	r22, 0x01	; 1
 888:	8f e1       	ldi	r24, 0x1F	; 31
 88a:	0e 94 91 06 	call	0xd22	; 0xd22 <M_Dio_PinWrite>
 88e:	08 95       	ret
 890:	61 e0       	ldi	r22, 0x01	; 1
 892:	8e e1       	ldi	r24, 0x1E	; 30
 894:	0e 94 91 06 	call	0xd22	; 0xd22 <M_Dio_PinWrite>
 898:	08 95       	ret

0000089a <H_Led_Off>:
 89a:	82 30       	cpi	r24, 0x02	; 2
 89c:	49 f0       	breq	.+18     	; 0x8b0 <H_Led_Off+0x16>
 89e:	83 30       	cpi	r24, 0x03	; 3
 8a0:	61 f0       	breq	.+24     	; 0x8ba <H_Led_Off+0x20>
 8a2:	81 30       	cpi	r24, 0x01	; 1
 8a4:	71 f4       	brne	.+28     	; 0x8c2 <H_Led_Off+0x28>
 8a6:	60 e0       	ldi	r22, 0x00	; 0
 8a8:	80 e2       	ldi	r24, 0x20	; 32
 8aa:	0e 94 91 06 	call	0xd22	; 0xd22 <M_Dio_PinWrite>
 8ae:	08 95       	ret
 8b0:	60 e0       	ldi	r22, 0x00	; 0
 8b2:	8f e1       	ldi	r24, 0x1F	; 31
 8b4:	0e 94 91 06 	call	0xd22	; 0xd22 <M_Dio_PinWrite>
 8b8:	08 95       	ret
 8ba:	60 e0       	ldi	r22, 0x00	; 0
 8bc:	8e e1       	ldi	r24, 0x1E	; 30
 8be:	0e 94 91 06 	call	0xd22	; 0xd22 <M_Dio_PinWrite>
 8c2:	08 95       	ret

000008c4 <H_Ssd_Display>:
 8c4:	cf 93       	push	r28
 8c6:	c6 2f       	mov	r28, r22
 8c8:	81 30       	cpi	r24, 0x01	; 1
 8ca:	19 f0       	breq	.+6      	; 0x8d2 <H_Ssd_Display+0xe>
 8cc:	82 30       	cpi	r24, 0x02	; 2
 8ce:	51 f0       	breq	.+20     	; 0x8e4 <H_Ssd_Display+0x20>
 8d0:	11 c0       	rjmp	.+34     	; 0x8f4 <H_Ssd_Display+0x30>
 8d2:	61 e0       	ldi	r22, 0x01	; 1
 8d4:	84 e2       	ldi	r24, 0x24	; 36
 8d6:	0e 94 91 06 	call	0xd22	; 0xd22 <M_Dio_PinWrite>
 8da:	60 e0       	ldi	r22, 0x00	; 0
 8dc:	85 e2       	ldi	r24, 0x25	; 37
 8de:	0e 94 91 06 	call	0xd22	; 0xd22 <M_Dio_PinWrite>
 8e2:	08 c0       	rjmp	.+16     	; 0x8f4 <H_Ssd_Display+0x30>
 8e4:	60 e0       	ldi	r22, 0x00	; 0
 8e6:	84 e2       	ldi	r24, 0x24	; 36
 8e8:	0e 94 91 06 	call	0xd22	; 0xd22 <M_Dio_PinWrite>
 8ec:	61 e0       	ldi	r22, 0x01	; 1
 8ee:	85 e2       	ldi	r24, 0x25	; 37
 8f0:	0e 94 91 06 	call	0xd22	; 0xd22 <M_Dio_PinWrite>
 8f4:	8c 2f       	mov	r24, r28
 8f6:	90 e0       	ldi	r25, 0x00	; 0
 8f8:	8a 30       	cpi	r24, 0x0A	; 10
 8fa:	91 05       	cpc	r25, r1
 8fc:	08 f0       	brcs	.+2      	; 0x900 <H_Ssd_Display+0x3c>
 8fe:	26 c1       	rjmp	.+588    	; 0xb4c <H_Ssd_Display+0x288>
 900:	fc 01       	movw	r30, r24
 902:	e6 5d       	subi	r30, 0xD6	; 214
 904:	ff 4f       	sbci	r31, 0xFF	; 255
 906:	0c 94 1a 07 	jmp	0xe34	; 0xe34 <__tablejump2__>
 90a:	61 e0       	ldi	r22, 0x01	; 1
 90c:	8b e0       	ldi	r24, 0x0B	; 11
 90e:	0e 94 91 06 	call	0xd22	; 0xd22 <M_Dio_PinWrite>
 912:	61 e0       	ldi	r22, 0x01	; 1
 914:	8c e0       	ldi	r24, 0x0C	; 12
 916:	0e 94 91 06 	call	0xd22	; 0xd22 <M_Dio_PinWrite>
 91a:	61 e0       	ldi	r22, 0x01	; 1
 91c:	8d e0       	ldi	r24, 0x0D	; 13
 91e:	0e 94 91 06 	call	0xd22	; 0xd22 <M_Dio_PinWrite>
 922:	61 e0       	ldi	r22, 0x01	; 1
 924:	8e e0       	ldi	r24, 0x0E	; 14
 926:	0e 94 91 06 	call	0xd22	; 0xd22 <M_Dio_PinWrite>
 92a:	61 e0       	ldi	r22, 0x01	; 1
 92c:	8f e0       	ldi	r24, 0x0F	; 15
 92e:	0e 94 91 06 	call	0xd22	; 0xd22 <M_Dio_PinWrite>
 932:	61 e0       	ldi	r22, 0x01	; 1
 934:	80 e1       	ldi	r24, 0x10	; 16
 936:	0e 94 91 06 	call	0xd22	; 0xd22 <M_Dio_PinWrite>
 93a:	60 e0       	ldi	r22, 0x00	; 0
 93c:	81 e1       	ldi	r24, 0x11	; 17
 93e:	0e 94 91 06 	call	0xd22	; 0xd22 <M_Dio_PinWrite>
 942:	04 c1       	rjmp	.+520    	; 0xb4c <H_Ssd_Display+0x288>
 944:	60 e0       	ldi	r22, 0x00	; 0
 946:	8b e0       	ldi	r24, 0x0B	; 11
 948:	0e 94 91 06 	call	0xd22	; 0xd22 <M_Dio_PinWrite>
 94c:	61 e0       	ldi	r22, 0x01	; 1
 94e:	8c e0       	ldi	r24, 0x0C	; 12
 950:	0e 94 91 06 	call	0xd22	; 0xd22 <M_Dio_PinWrite>
 954:	61 e0       	ldi	r22, 0x01	; 1
 956:	8d e0       	ldi	r24, 0x0D	; 13
 958:	0e 94 91 06 	call	0xd22	; 0xd22 <M_Dio_PinWrite>
 95c:	60 e0       	ldi	r22, 0x00	; 0
 95e:	8e e0       	ldi	r24, 0x0E	; 14
 960:	0e 94 91 06 	call	0xd22	; 0xd22 <M_Dio_PinWrite>
 964:	60 e0       	ldi	r22, 0x00	; 0
 966:	8f e0       	ldi	r24, 0x0F	; 15
 968:	0e 94 91 06 	call	0xd22	; 0xd22 <M_Dio_PinWrite>
 96c:	60 e0       	ldi	r22, 0x00	; 0
 96e:	80 e1       	ldi	r24, 0x10	; 16
 970:	0e 94 91 06 	call	0xd22	; 0xd22 <M_Dio_PinWrite>
 974:	60 e0       	ldi	r22, 0x00	; 0
 976:	81 e1       	ldi	r24, 0x11	; 17
 978:	0e 94 91 06 	call	0xd22	; 0xd22 <M_Dio_PinWrite>
 97c:	e7 c0       	rjmp	.+462    	; 0xb4c <H_Ssd_Display+0x288>
 97e:	61 e0       	ldi	r22, 0x01	; 1
 980:	8b e0       	ldi	r24, 0x0B	; 11
 982:	0e 94 91 06 	call	0xd22	; 0xd22 <M_Dio_PinWrite>
 986:	61 e0       	ldi	r22, 0x01	; 1
 988:	8c e0       	ldi	r24, 0x0C	; 12
 98a:	0e 94 91 06 	call	0xd22	; 0xd22 <M_Dio_PinWrite>
 98e:	60 e0       	ldi	r22, 0x00	; 0
 990:	8d e0       	ldi	r24, 0x0D	; 13
 992:	0e 94 91 06 	call	0xd22	; 0xd22 <M_Dio_PinWrite>
 996:	61 e0       	ldi	r22, 0x01	; 1
 998:	8e e0       	ldi	r24, 0x0E	; 14
 99a:	0e 94 91 06 	call	0xd22	; 0xd22 <M_Dio_PinWrite>
 99e:	61 e0       	ldi	r22, 0x01	; 1
 9a0:	8f e0       	ldi	r24, 0x0F	; 15
 9a2:	0e 94 91 06 	call	0xd22	; 0xd22 <M_Dio_PinWrite>
 9a6:	60 e0       	ldi	r22, 0x00	; 0
 9a8:	80 e1       	ldi	r24, 0x10	; 16
 9aa:	0e 94 91 06 	call	0xd22	; 0xd22 <M_Dio_PinWrite>
 9ae:	61 e0       	ldi	r22, 0x01	; 1
 9b0:	81 e1       	ldi	r24, 0x11	; 17
 9b2:	0e 94 91 06 	call	0xd22	; 0xd22 <M_Dio_PinWrite>
 9b6:	ca c0       	rjmp	.+404    	; 0xb4c <H_Ssd_Display+0x288>
 9b8:	61 e0       	ldi	r22, 0x01	; 1
 9ba:	8b e0       	ldi	r24, 0x0B	; 11
 9bc:	0e 94 91 06 	call	0xd22	; 0xd22 <M_Dio_PinWrite>
 9c0:	61 e0       	ldi	r22, 0x01	; 1
 9c2:	8c e0       	ldi	r24, 0x0C	; 12
 9c4:	0e 94 91 06 	call	0xd22	; 0xd22 <M_Dio_PinWrite>
 9c8:	61 e0       	ldi	r22, 0x01	; 1
 9ca:	8d e0       	ldi	r24, 0x0D	; 13
 9cc:	0e 94 91 06 	call	0xd22	; 0xd22 <M_Dio_PinWrite>
 9d0:	61 e0       	ldi	r22, 0x01	; 1
 9d2:	8e e0       	ldi	r24, 0x0E	; 14
 9d4:	0e 94 91 06 	call	0xd22	; 0xd22 <M_Dio_PinWrite>
 9d8:	60 e0       	ldi	r22, 0x00	; 0
 9da:	8f e0       	ldi	r24, 0x0F	; 15
 9dc:	0e 94 91 06 	call	0xd22	; 0xd22 <M_Dio_PinWrite>
 9e0:	60 e0       	ldi	r22, 0x00	; 0
 9e2:	80 e1       	ldi	r24, 0x10	; 16
 9e4:	0e 94 91 06 	call	0xd22	; 0xd22 <M_Dio_PinWrite>
 9e8:	61 e0       	ldi	r22, 0x01	; 1
 9ea:	81 e1       	ldi	r24, 0x11	; 17
 9ec:	0e 94 91 06 	call	0xd22	; 0xd22 <M_Dio_PinWrite>
 9f0:	ad c0       	rjmp	.+346    	; 0xb4c <H_Ssd_Display+0x288>
 9f2:	60 e0       	ldi	r22, 0x00	; 0
 9f4:	8b e0       	ldi	r24, 0x0B	; 11
 9f6:	0e 94 91 06 	call	0xd22	; 0xd22 <M_Dio_PinWrite>
 9fa:	61 e0       	ldi	r22, 0x01	; 1
 9fc:	8c e0       	ldi	r24, 0x0C	; 12
 9fe:	0e 94 91 06 	call	0xd22	; 0xd22 <M_Dio_PinWrite>
 a02:	61 e0       	ldi	r22, 0x01	; 1
 a04:	8d e0       	ldi	r24, 0x0D	; 13
 a06:	0e 94 91 06 	call	0xd22	; 0xd22 <M_Dio_PinWrite>
 a0a:	60 e0       	ldi	r22, 0x00	; 0
 a0c:	8e e0       	ldi	r24, 0x0E	; 14
 a0e:	0e 94 91 06 	call	0xd22	; 0xd22 <M_Dio_PinWrite>
 a12:	60 e0       	ldi	r22, 0x00	; 0
 a14:	8f e0       	ldi	r24, 0x0F	; 15
 a16:	0e 94 91 06 	call	0xd22	; 0xd22 <M_Dio_PinWrite>
 a1a:	61 e0       	ldi	r22, 0x01	; 1
 a1c:	80 e1       	ldi	r24, 0x10	; 16
 a1e:	0e 94 91 06 	call	0xd22	; 0xd22 <M_Dio_PinWrite>
 a22:	61 e0       	ldi	r22, 0x01	; 1
 a24:	81 e1       	ldi	r24, 0x11	; 17
 a26:	0e 94 91 06 	call	0xd22	; 0xd22 <M_Dio_PinWrite>
 a2a:	90 c0       	rjmp	.+288    	; 0xb4c <H_Ssd_Display+0x288>
 a2c:	61 e0       	ldi	r22, 0x01	; 1
 a2e:	8b e0       	ldi	r24, 0x0B	; 11
 a30:	0e 94 91 06 	call	0xd22	; 0xd22 <M_Dio_PinWrite>
 a34:	60 e0       	ldi	r22, 0x00	; 0
 a36:	8c e0       	ldi	r24, 0x0C	; 12
 a38:	0e 94 91 06 	call	0xd22	; 0xd22 <M_Dio_PinWrite>
 a3c:	61 e0       	ldi	r22, 0x01	; 1
 a3e:	8d e0       	ldi	r24, 0x0D	; 13
 a40:	0e 94 91 06 	call	0xd22	; 0xd22 <M_Dio_PinWrite>
 a44:	61 e0       	ldi	r22, 0x01	; 1
 a46:	8e e0       	ldi	r24, 0x0E	; 14
 a48:	0e 94 91 06 	call	0xd22	; 0xd22 <M_Dio_PinWrite>
 a4c:	60 e0       	ldi	r22, 0x00	; 0
 a4e:	8f e0       	ldi	r24, 0x0F	; 15
 a50:	0e 94 91 06 	call	0xd22	; 0xd22 <M_Dio_PinWrite>
 a54:	61 e0       	ldi	r22, 0x01	; 1
 a56:	80 e1       	ldi	r24, 0x10	; 16
 a58:	0e 94 91 06 	call	0xd22	; 0xd22 <M_Dio_PinWrite>
 a5c:	61 e0       	ldi	r22, 0x01	; 1
 a5e:	81 e1       	ldi	r24, 0x11	; 17
 a60:	0e 94 91 06 	call	0xd22	; 0xd22 <M_Dio_PinWrite>
 a64:	73 c0       	rjmp	.+230    	; 0xb4c <H_Ssd_Display+0x288>
 a66:	61 e0       	ldi	r22, 0x01	; 1
 a68:	8b e0       	ldi	r24, 0x0B	; 11
 a6a:	0e 94 91 06 	call	0xd22	; 0xd22 <M_Dio_PinWrite>
 a6e:	60 e0       	ldi	r22, 0x00	; 0
 a70:	8c e0       	ldi	r24, 0x0C	; 12
 a72:	0e 94 91 06 	call	0xd22	; 0xd22 <M_Dio_PinWrite>
 a76:	61 e0       	ldi	r22, 0x01	; 1
 a78:	8d e0       	ldi	r24, 0x0D	; 13
 a7a:	0e 94 91 06 	call	0xd22	; 0xd22 <M_Dio_PinWrite>
 a7e:	61 e0       	ldi	r22, 0x01	; 1
 a80:	8e e0       	ldi	r24, 0x0E	; 14
 a82:	0e 94 91 06 	call	0xd22	; 0xd22 <M_Dio_PinWrite>
 a86:	61 e0       	ldi	r22, 0x01	; 1
 a88:	8f e0       	ldi	r24, 0x0F	; 15
 a8a:	0e 94 91 06 	call	0xd22	; 0xd22 <M_Dio_PinWrite>
 a8e:	61 e0       	ldi	r22, 0x01	; 1
 a90:	80 e1       	ldi	r24, 0x10	; 16
 a92:	0e 94 91 06 	call	0xd22	; 0xd22 <M_Dio_PinWrite>
 a96:	61 e0       	ldi	r22, 0x01	; 1
 a98:	81 e1       	ldi	r24, 0x11	; 17
 a9a:	0e 94 91 06 	call	0xd22	; 0xd22 <M_Dio_PinWrite>
 a9e:	56 c0       	rjmp	.+172    	; 0xb4c <H_Ssd_Display+0x288>
 aa0:	61 e0       	ldi	r22, 0x01	; 1
 aa2:	8b e0       	ldi	r24, 0x0B	; 11
 aa4:	0e 94 91 06 	call	0xd22	; 0xd22 <M_Dio_PinWrite>
 aa8:	61 e0       	ldi	r22, 0x01	; 1
 aaa:	8c e0       	ldi	r24, 0x0C	; 12
 aac:	0e 94 91 06 	call	0xd22	; 0xd22 <M_Dio_PinWrite>
 ab0:	61 e0       	ldi	r22, 0x01	; 1
 ab2:	8d e0       	ldi	r24, 0x0D	; 13
 ab4:	0e 94 91 06 	call	0xd22	; 0xd22 <M_Dio_PinWrite>
 ab8:	60 e0       	ldi	r22, 0x00	; 0
 aba:	8e e0       	ldi	r24, 0x0E	; 14
 abc:	0e 94 91 06 	call	0xd22	; 0xd22 <M_Dio_PinWrite>
 ac0:	60 e0       	ldi	r22, 0x00	; 0
 ac2:	8f e0       	ldi	r24, 0x0F	; 15
 ac4:	0e 94 91 06 	call	0xd22	; 0xd22 <M_Dio_PinWrite>
 ac8:	60 e0       	ldi	r22, 0x00	; 0
 aca:	80 e1       	ldi	r24, 0x10	; 16
 acc:	0e 94 91 06 	call	0xd22	; 0xd22 <M_Dio_PinWrite>
 ad0:	60 e0       	ldi	r22, 0x00	; 0
 ad2:	81 e1       	ldi	r24, 0x11	; 17
 ad4:	0e 94 91 06 	call	0xd22	; 0xd22 <M_Dio_PinWrite>
 ad8:	39 c0       	rjmp	.+114    	; 0xb4c <H_Ssd_Display+0x288>
 ada:	61 e0       	ldi	r22, 0x01	; 1
 adc:	8b e0       	ldi	r24, 0x0B	; 11
 ade:	0e 94 91 06 	call	0xd22	; 0xd22 <M_Dio_PinWrite>
 ae2:	61 e0       	ldi	r22, 0x01	; 1
 ae4:	8c e0       	ldi	r24, 0x0C	; 12
 ae6:	0e 94 91 06 	call	0xd22	; 0xd22 <M_Dio_PinWrite>
 aea:	61 e0       	ldi	r22, 0x01	; 1
 aec:	8d e0       	ldi	r24, 0x0D	; 13
 aee:	0e 94 91 06 	call	0xd22	; 0xd22 <M_Dio_PinWrite>
 af2:	61 e0       	ldi	r22, 0x01	; 1
 af4:	8e e0       	ldi	r24, 0x0E	; 14
 af6:	0e 94 91 06 	call	0xd22	; 0xd22 <M_Dio_PinWrite>
 afa:	61 e0       	ldi	r22, 0x01	; 1
 afc:	8f e0       	ldi	r24, 0x0F	; 15
 afe:	0e 94 91 06 	call	0xd22	; 0xd22 <M_Dio_PinWrite>
 b02:	61 e0       	ldi	r22, 0x01	; 1
 b04:	80 e1       	ldi	r24, 0x10	; 16
 b06:	0e 94 91 06 	call	0xd22	; 0xd22 <M_Dio_PinWrite>
 b0a:	61 e0       	ldi	r22, 0x01	; 1
 b0c:	81 e1       	ldi	r24, 0x11	; 17
 b0e:	0e 94 91 06 	call	0xd22	; 0xd22 <M_Dio_PinWrite>
 b12:	1c c0       	rjmp	.+56     	; 0xb4c <H_Ssd_Display+0x288>
 b14:	61 e0       	ldi	r22, 0x01	; 1
 b16:	8b e0       	ldi	r24, 0x0B	; 11
 b18:	0e 94 91 06 	call	0xd22	; 0xd22 <M_Dio_PinWrite>
 b1c:	61 e0       	ldi	r22, 0x01	; 1
 b1e:	8c e0       	ldi	r24, 0x0C	; 12
 b20:	0e 94 91 06 	call	0xd22	; 0xd22 <M_Dio_PinWrite>
 b24:	61 e0       	ldi	r22, 0x01	; 1
 b26:	8d e0       	ldi	r24, 0x0D	; 13
 b28:	0e 94 91 06 	call	0xd22	; 0xd22 <M_Dio_PinWrite>
 b2c:	61 e0       	ldi	r22, 0x01	; 1
 b2e:	8e e0       	ldi	r24, 0x0E	; 14
 b30:	0e 94 91 06 	call	0xd22	; 0xd22 <M_Dio_PinWrite>
 b34:	60 e0       	ldi	r22, 0x00	; 0
 b36:	8f e0       	ldi	r24, 0x0F	; 15
 b38:	0e 94 91 06 	call	0xd22	; 0xd22 <M_Dio_PinWrite>
 b3c:	61 e0       	ldi	r22, 0x01	; 1
 b3e:	80 e1       	ldi	r24, 0x10	; 16
 b40:	0e 94 91 06 	call	0xd22	; 0xd22 <M_Dio_PinWrite>
 b44:	61 e0       	ldi	r22, 0x01	; 1
 b46:	81 e1       	ldi	r24, 0x11	; 17
 b48:	0e 94 91 06 	call	0xd22	; 0xd22 <M_Dio_PinWrite>
 b4c:	cf 91       	pop	r28
 b4e:	08 95       	ret

00000b50 <H_Ssd_Init>:
 b50:	61 e0       	ldi	r22, 0x01	; 1
 b52:	8b e0       	ldi	r24, 0x0B	; 11
 b54:	0e 94 08 06 	call	0xc10	; 0xc10 <M_Dio_PinMode>
 b58:	61 e0       	ldi	r22, 0x01	; 1
 b5a:	8c e0       	ldi	r24, 0x0C	; 12
 b5c:	0e 94 08 06 	call	0xc10	; 0xc10 <M_Dio_PinMode>
 b60:	61 e0       	ldi	r22, 0x01	; 1
 b62:	8d e0       	ldi	r24, 0x0D	; 13
 b64:	0e 94 08 06 	call	0xc10	; 0xc10 <M_Dio_PinMode>
 b68:	61 e0       	ldi	r22, 0x01	; 1
 b6a:	8e e0       	ldi	r24, 0x0E	; 14
 b6c:	0e 94 08 06 	call	0xc10	; 0xc10 <M_Dio_PinMode>
 b70:	61 e0       	ldi	r22, 0x01	; 1
 b72:	8f e0       	ldi	r24, 0x0F	; 15
 b74:	0e 94 08 06 	call	0xc10	; 0xc10 <M_Dio_PinMode>
 b78:	61 e0       	ldi	r22, 0x01	; 1
 b7a:	80 e1       	ldi	r24, 0x10	; 16
 b7c:	0e 94 08 06 	call	0xc10	; 0xc10 <M_Dio_PinMode>
 b80:	61 e0       	ldi	r22, 0x01	; 1
 b82:	81 e1       	ldi	r24, 0x11	; 17
 b84:	0e 94 08 06 	call	0xc10	; 0xc10 <M_Dio_PinMode>
 b88:	61 e0       	ldi	r22, 0x01	; 1
 b8a:	84 e2       	ldi	r24, 0x24	; 36
 b8c:	0e 94 08 06 	call	0xc10	; 0xc10 <M_Dio_PinMode>
 b90:	61 e0       	ldi	r22, 0x01	; 1
 b92:	85 e2       	ldi	r24, 0x25	; 37
 b94:	0e 94 08 06 	call	0xc10	; 0xc10 <M_Dio_PinMode>
 b98:	08 95       	ret

00000b9a <H_Ssd_WriteNum>:
 b9a:	0f 93       	push	r16
 b9c:	1f 93       	push	r17
 b9e:	cf 93       	push	r28
 ba0:	df 93       	push	r29
 ba2:	1d ec       	ldi	r17, 0xCD	; 205
 ba4:	81 9f       	mul	r24, r17
 ba6:	11 2d       	mov	r17, r1
 ba8:	11 24       	eor	r1, r1
 baa:	01 2f       	mov	r16, r17
 bac:	06 95       	lsr	r16
 bae:	06 95       	lsr	r16
 bb0:	06 95       	lsr	r16
 bb2:	00 0f       	add	r16, r16
 bb4:	90 2f       	mov	r25, r16
 bb6:	99 0f       	add	r25, r25
 bb8:	99 0f       	add	r25, r25
 bba:	09 0f       	add	r16, r25
 bbc:	80 1b       	sub	r24, r16
 bbe:	08 2f       	mov	r16, r24
 bc0:	16 95       	lsr	r17
 bc2:	16 95       	lsr	r17
 bc4:	16 95       	lsr	r17
 bc6:	c4 ef       	ldi	r28, 0xF4	; 244
 bc8:	d1 e0       	ldi	r29, 0x01	; 1
 bca:	60 2f       	mov	r22, r16
 bcc:	81 e0       	ldi	r24, 0x01	; 1
 bce:	0e 94 62 04 	call	0x8c4	; 0x8c4 <H_Ssd_Display>
 bd2:	8f e9       	ldi	r24, 0x9F	; 159
 bd4:	9f e0       	ldi	r25, 0x0F	; 15
 bd6:	01 97       	sbiw	r24, 0x01	; 1
 bd8:	f1 f7       	brne	.-4      	; 0xbd6 <H_Ssd_WriteNum+0x3c>
 bda:	00 c0       	rjmp	.+0      	; 0xbdc <H_Ssd_WriteNum+0x42>
 bdc:	00 00       	nop
 bde:	61 2f       	mov	r22, r17
 be0:	82 e0       	ldi	r24, 0x02	; 2
 be2:	0e 94 62 04 	call	0x8c4	; 0x8c4 <H_Ssd_Display>
 be6:	8f e9       	ldi	r24, 0x9F	; 159
 be8:	9f e0       	ldi	r25, 0x0F	; 15
 bea:	01 97       	sbiw	r24, 0x01	; 1
 bec:	f1 f7       	brne	.-4      	; 0xbea <H_Ssd_WriteNum+0x50>
 bee:	00 c0       	rjmp	.+0      	; 0xbf0 <H_Ssd_WriteNum+0x56>
 bf0:	00 00       	nop
 bf2:	21 97       	sbiw	r28, 0x01	; 1
 bf4:	51 f7       	brne	.-44     	; 0xbca <H_Ssd_WriteNum+0x30>
 bf6:	60 e0       	ldi	r22, 0x00	; 0
 bf8:	84 e2       	ldi	r24, 0x24	; 36
 bfa:	0e 94 91 06 	call	0xd22	; 0xd22 <M_Dio_PinWrite>
 bfe:	60 e0       	ldi	r22, 0x00	; 0
 c00:	85 e2       	ldi	r24, 0x25	; 37
 c02:	0e 94 91 06 	call	0xd22	; 0xd22 <M_Dio_PinWrite>
 c06:	df 91       	pop	r29
 c08:	cf 91       	pop	r28
 c0a:	1f 91       	pop	r17
 c0c:	0f 91       	pop	r16
 c0e:	08 95       	ret

00000c10 <M_Dio_PinMode>:
 c10:	9d ec       	ldi	r25, 0xCD	; 205
 c12:	89 9f       	mul	r24, r25
 c14:	91 2d       	mov	r25, r1
 c16:	11 24       	eor	r1, r1
 c18:	29 2f       	mov	r18, r25
 c1a:	26 95       	lsr	r18
 c1c:	26 95       	lsr	r18
 c1e:	26 95       	lsr	r18
 c20:	22 0f       	add	r18, r18
 c22:	32 2f       	mov	r19, r18
 c24:	33 0f       	add	r19, r19
 c26:	33 0f       	add	r19, r19
 c28:	23 0f       	add	r18, r19
 c2a:	82 1b       	sub	r24, r18
 c2c:	28 2f       	mov	r18, r24
 c2e:	96 95       	lsr	r25
 c30:	96 95       	lsr	r25
 c32:	96 95       	lsr	r25
 c34:	66 23       	and	r22, r22
 c36:	19 f0       	breq	.+6      	; 0xc3e <M_Dio_PinMode+0x2e>
 c38:	61 30       	cpi	r22, 0x01	; 1
 c3a:	e1 f1       	breq	.+120    	; 0xcb4 <M_Dio_PinMode+0xa4>
 c3c:	08 95       	ret
 c3e:	92 30       	cpi	r25, 0x02	; 2
 c40:	a9 f0       	breq	.+42     	; 0xc6c <M_Dio_PinMode+0x5c>
 c42:	18 f4       	brcc	.+6      	; 0xc4a <M_Dio_PinMode+0x3a>
 c44:	91 30       	cpi	r25, 0x01	; 1
 c46:	31 f0       	breq	.+12     	; 0xc54 <M_Dio_PinMode+0x44>
 c48:	08 95       	ret
 c4a:	93 30       	cpi	r25, 0x03	; 3
 c4c:	d9 f0       	breq	.+54     	; 0xc84 <M_Dio_PinMode+0x74>
 c4e:	94 30       	cpi	r25, 0x04	; 4
 c50:	29 f1       	breq	.+74     	; 0xc9c <M_Dio_PinMode+0x8c>
 c52:	08 95       	ret
 c54:	3a b3       	in	r19, 0x1a	; 26
 c56:	81 e0       	ldi	r24, 0x01	; 1
 c58:	90 e0       	ldi	r25, 0x00	; 0
 c5a:	02 c0       	rjmp	.+4      	; 0xc60 <M_Dio_PinMode+0x50>
 c5c:	88 0f       	add	r24, r24
 c5e:	99 1f       	adc	r25, r25
 c60:	2a 95       	dec	r18
 c62:	e2 f7       	brpl	.-8      	; 0xc5c <M_Dio_PinMode+0x4c>
 c64:	80 95       	com	r24
 c66:	83 23       	and	r24, r19
 c68:	8a bb       	out	0x1a, r24	; 26
 c6a:	08 95       	ret
 c6c:	37 b3       	in	r19, 0x17	; 23
 c6e:	81 e0       	ldi	r24, 0x01	; 1
 c70:	90 e0       	ldi	r25, 0x00	; 0
 c72:	02 c0       	rjmp	.+4      	; 0xc78 <M_Dio_PinMode+0x68>
 c74:	88 0f       	add	r24, r24
 c76:	99 1f       	adc	r25, r25
 c78:	2a 95       	dec	r18
 c7a:	e2 f7       	brpl	.-8      	; 0xc74 <M_Dio_PinMode+0x64>
 c7c:	80 95       	com	r24
 c7e:	83 23       	and	r24, r19
 c80:	87 bb       	out	0x17, r24	; 23
 c82:	08 95       	ret
 c84:	34 b3       	in	r19, 0x14	; 20
 c86:	81 e0       	ldi	r24, 0x01	; 1
 c88:	90 e0       	ldi	r25, 0x00	; 0
 c8a:	02 c0       	rjmp	.+4      	; 0xc90 <M_Dio_PinMode+0x80>
 c8c:	88 0f       	add	r24, r24
 c8e:	99 1f       	adc	r25, r25
 c90:	2a 95       	dec	r18
 c92:	e2 f7       	brpl	.-8      	; 0xc8c <M_Dio_PinMode+0x7c>
 c94:	80 95       	com	r24
 c96:	83 23       	and	r24, r19
 c98:	84 bb       	out	0x14, r24	; 20
 c9a:	08 95       	ret
 c9c:	31 b3       	in	r19, 0x11	; 17
 c9e:	81 e0       	ldi	r24, 0x01	; 1
 ca0:	90 e0       	ldi	r25, 0x00	; 0
 ca2:	02 c0       	rjmp	.+4      	; 0xca8 <M_Dio_PinMode+0x98>
 ca4:	88 0f       	add	r24, r24
 ca6:	99 1f       	adc	r25, r25
 ca8:	2a 95       	dec	r18
 caa:	e2 f7       	brpl	.-8      	; 0xca4 <M_Dio_PinMode+0x94>
 cac:	80 95       	com	r24
 cae:	83 23       	and	r24, r19
 cb0:	81 bb       	out	0x11, r24	; 17
 cb2:	08 95       	ret
 cb4:	92 30       	cpi	r25, 0x02	; 2
 cb6:	a1 f0       	breq	.+40     	; 0xce0 <M_Dio_PinMode+0xd0>
 cb8:	18 f4       	brcc	.+6      	; 0xcc0 <M_Dio_PinMode+0xb0>
 cba:	91 30       	cpi	r25, 0x01	; 1
 cbc:	31 f0       	breq	.+12     	; 0xcca <M_Dio_PinMode+0xba>
 cbe:	08 95       	ret
 cc0:	93 30       	cpi	r25, 0x03	; 3
 cc2:	c9 f0       	breq	.+50     	; 0xcf6 <M_Dio_PinMode+0xe6>
 cc4:	94 30       	cpi	r25, 0x04	; 4
 cc6:	11 f1       	breq	.+68     	; 0xd0c <M_Dio_PinMode+0xfc>
 cc8:	08 95       	ret
 cca:	3a b3       	in	r19, 0x1a	; 26
 ccc:	81 e0       	ldi	r24, 0x01	; 1
 cce:	90 e0       	ldi	r25, 0x00	; 0
 cd0:	02 c0       	rjmp	.+4      	; 0xcd6 <M_Dio_PinMode+0xc6>
 cd2:	88 0f       	add	r24, r24
 cd4:	99 1f       	adc	r25, r25
 cd6:	2a 95       	dec	r18
 cd8:	e2 f7       	brpl	.-8      	; 0xcd2 <M_Dio_PinMode+0xc2>
 cda:	83 2b       	or	r24, r19
 cdc:	8a bb       	out	0x1a, r24	; 26
 cde:	08 95       	ret
 ce0:	37 b3       	in	r19, 0x17	; 23
 ce2:	81 e0       	ldi	r24, 0x01	; 1
 ce4:	90 e0       	ldi	r25, 0x00	; 0
 ce6:	02 c0       	rjmp	.+4      	; 0xcec <M_Dio_PinMode+0xdc>
 ce8:	88 0f       	add	r24, r24
 cea:	99 1f       	adc	r25, r25
 cec:	2a 95       	dec	r18
 cee:	e2 f7       	brpl	.-8      	; 0xce8 <M_Dio_PinMode+0xd8>
 cf0:	83 2b       	or	r24, r19
 cf2:	87 bb       	out	0x17, r24	; 23
 cf4:	08 95       	ret
 cf6:	34 b3       	in	r19, 0x14	; 20
 cf8:	81 e0       	ldi	r24, 0x01	; 1
 cfa:	90 e0       	ldi	r25, 0x00	; 0
 cfc:	02 c0       	rjmp	.+4      	; 0xd02 <M_Dio_PinMode+0xf2>
 cfe:	88 0f       	add	r24, r24
 d00:	99 1f       	adc	r25, r25
 d02:	2a 95       	dec	r18
 d04:	e2 f7       	brpl	.-8      	; 0xcfe <M_Dio_PinMode+0xee>
 d06:	83 2b       	or	r24, r19
 d08:	84 bb       	out	0x14, r24	; 20
 d0a:	08 95       	ret
 d0c:	31 b3       	in	r19, 0x11	; 17
 d0e:	81 e0       	ldi	r24, 0x01	; 1
 d10:	90 e0       	ldi	r25, 0x00	; 0
 d12:	02 c0       	rjmp	.+4      	; 0xd18 <M_Dio_PinMode+0x108>
 d14:	88 0f       	add	r24, r24
 d16:	99 1f       	adc	r25, r25
 d18:	2a 95       	dec	r18
 d1a:	e2 f7       	brpl	.-8      	; 0xd14 <M_Dio_PinMode+0x104>
 d1c:	83 2b       	or	r24, r19
 d1e:	81 bb       	out	0x11, r24	; 17
 d20:	08 95       	ret

00000d22 <M_Dio_PinWrite>:
 d22:	9d ec       	ldi	r25, 0xCD	; 205
 d24:	89 9f       	mul	r24, r25
 d26:	91 2d       	mov	r25, r1
 d28:	11 24       	eor	r1, r1
 d2a:	29 2f       	mov	r18, r25
 d2c:	26 95       	lsr	r18
 d2e:	26 95       	lsr	r18
 d30:	26 95       	lsr	r18
 d32:	22 0f       	add	r18, r18
 d34:	32 2f       	mov	r19, r18
 d36:	33 0f       	add	r19, r19
 d38:	33 0f       	add	r19, r19
 d3a:	23 0f       	add	r18, r19
 d3c:	82 1b       	sub	r24, r18
 d3e:	28 2f       	mov	r18, r24
 d40:	96 95       	lsr	r25
 d42:	96 95       	lsr	r25
 d44:	96 95       	lsr	r25
 d46:	66 23       	and	r22, r22
 d48:	19 f0       	breq	.+6      	; 0xd50 <M_Dio_PinWrite+0x2e>
 d4a:	61 30       	cpi	r22, 0x01	; 1
 d4c:	e1 f1       	breq	.+120    	; 0xdc6 <M_Dio_PinWrite+0xa4>
 d4e:	08 95       	ret
 d50:	92 30       	cpi	r25, 0x02	; 2
 d52:	a9 f0       	breq	.+42     	; 0xd7e <M_Dio_PinWrite+0x5c>
 d54:	18 f4       	brcc	.+6      	; 0xd5c <M_Dio_PinWrite+0x3a>
 d56:	91 30       	cpi	r25, 0x01	; 1
 d58:	31 f0       	breq	.+12     	; 0xd66 <M_Dio_PinWrite+0x44>
 d5a:	08 95       	ret
 d5c:	93 30       	cpi	r25, 0x03	; 3
 d5e:	d9 f0       	breq	.+54     	; 0xd96 <M_Dio_PinWrite+0x74>
 d60:	94 30       	cpi	r25, 0x04	; 4
 d62:	29 f1       	breq	.+74     	; 0xdae <M_Dio_PinWrite+0x8c>
 d64:	08 95       	ret
 d66:	3b b3       	in	r19, 0x1b	; 27
 d68:	81 e0       	ldi	r24, 0x01	; 1
 d6a:	90 e0       	ldi	r25, 0x00	; 0
 d6c:	02 c0       	rjmp	.+4      	; 0xd72 <M_Dio_PinWrite+0x50>
 d6e:	88 0f       	add	r24, r24
 d70:	99 1f       	adc	r25, r25
 d72:	2a 95       	dec	r18
 d74:	e2 f7       	brpl	.-8      	; 0xd6e <M_Dio_PinWrite+0x4c>
 d76:	80 95       	com	r24
 d78:	83 23       	and	r24, r19
 d7a:	8b bb       	out	0x1b, r24	; 27
 d7c:	08 95       	ret
 d7e:	38 b3       	in	r19, 0x18	; 24
 d80:	81 e0       	ldi	r24, 0x01	; 1
 d82:	90 e0       	ldi	r25, 0x00	; 0
 d84:	02 c0       	rjmp	.+4      	; 0xd8a <M_Dio_PinWrite+0x68>
 d86:	88 0f       	add	r24, r24
 d88:	99 1f       	adc	r25, r25
 d8a:	2a 95       	dec	r18
 d8c:	e2 f7       	brpl	.-8      	; 0xd86 <M_Dio_PinWrite+0x64>
 d8e:	80 95       	com	r24
 d90:	83 23       	and	r24, r19
 d92:	88 bb       	out	0x18, r24	; 24
 d94:	08 95       	ret
 d96:	35 b3       	in	r19, 0x15	; 21
 d98:	81 e0       	ldi	r24, 0x01	; 1
 d9a:	90 e0       	ldi	r25, 0x00	; 0
 d9c:	02 c0       	rjmp	.+4      	; 0xda2 <M_Dio_PinWrite+0x80>
 d9e:	88 0f       	add	r24, r24
 da0:	99 1f       	adc	r25, r25
 da2:	2a 95       	dec	r18
 da4:	e2 f7       	brpl	.-8      	; 0xd9e <M_Dio_PinWrite+0x7c>
 da6:	80 95       	com	r24
 da8:	83 23       	and	r24, r19
 daa:	85 bb       	out	0x15, r24	; 21
 dac:	08 95       	ret
 dae:	32 b3       	in	r19, 0x12	; 18
 db0:	81 e0       	ldi	r24, 0x01	; 1
 db2:	90 e0       	ldi	r25, 0x00	; 0
 db4:	02 c0       	rjmp	.+4      	; 0xdba <M_Dio_PinWrite+0x98>
 db6:	88 0f       	add	r24, r24
 db8:	99 1f       	adc	r25, r25
 dba:	2a 95       	dec	r18
 dbc:	e2 f7       	brpl	.-8      	; 0xdb6 <M_Dio_PinWrite+0x94>
 dbe:	80 95       	com	r24
 dc0:	83 23       	and	r24, r19
 dc2:	82 bb       	out	0x12, r24	; 18
 dc4:	08 95       	ret
 dc6:	92 30       	cpi	r25, 0x02	; 2
 dc8:	a1 f0       	breq	.+40     	; 0xdf2 <M_Dio_PinWrite+0xd0>
 dca:	18 f4       	brcc	.+6      	; 0xdd2 <M_Dio_PinWrite+0xb0>
 dcc:	91 30       	cpi	r25, 0x01	; 1
 dce:	31 f0       	breq	.+12     	; 0xddc <M_Dio_PinWrite+0xba>
 dd0:	08 95       	ret
 dd2:	93 30       	cpi	r25, 0x03	; 3
 dd4:	c9 f0       	breq	.+50     	; 0xe08 <M_Dio_PinWrite+0xe6>
 dd6:	94 30       	cpi	r25, 0x04	; 4
 dd8:	11 f1       	breq	.+68     	; 0xe1e <M_Dio_PinWrite+0xfc>
 dda:	08 95       	ret
 ddc:	3b b3       	in	r19, 0x1b	; 27
 dde:	81 e0       	ldi	r24, 0x01	; 1
 de0:	90 e0       	ldi	r25, 0x00	; 0
 de2:	02 c0       	rjmp	.+4      	; 0xde8 <M_Dio_PinWrite+0xc6>
 de4:	88 0f       	add	r24, r24
 de6:	99 1f       	adc	r25, r25
 de8:	2a 95       	dec	r18
 dea:	e2 f7       	brpl	.-8      	; 0xde4 <M_Dio_PinWrite+0xc2>
 dec:	83 2b       	or	r24, r19
 dee:	8b bb       	out	0x1b, r24	; 27
 df0:	08 95       	ret
 df2:	38 b3       	in	r19, 0x18	; 24
 df4:	81 e0       	ldi	r24, 0x01	; 1
 df6:	90 e0       	ldi	r25, 0x00	; 0
 df8:	02 c0       	rjmp	.+4      	; 0xdfe <M_Dio_PinWrite+0xdc>
 dfa:	88 0f       	add	r24, r24
 dfc:	99 1f       	adc	r25, r25
 dfe:	2a 95       	dec	r18
 e00:	e2 f7       	brpl	.-8      	; 0xdfa <M_Dio_PinWrite+0xd8>
 e02:	83 2b       	or	r24, r19
 e04:	88 bb       	out	0x18, r24	; 24
 e06:	08 95       	ret
 e08:	35 b3       	in	r19, 0x15	; 21
 e0a:	81 e0       	ldi	r24, 0x01	; 1
 e0c:	90 e0       	ldi	r25, 0x00	; 0
 e0e:	02 c0       	rjmp	.+4      	; 0xe14 <M_Dio_PinWrite+0xf2>
 e10:	88 0f       	add	r24, r24
 e12:	99 1f       	adc	r25, r25
 e14:	2a 95       	dec	r18
 e16:	e2 f7       	brpl	.-8      	; 0xe10 <M_Dio_PinWrite+0xee>
 e18:	83 2b       	or	r24, r19
 e1a:	85 bb       	out	0x15, r24	; 21
 e1c:	08 95       	ret
 e1e:	32 b3       	in	r19, 0x12	; 18
 e20:	81 e0       	ldi	r24, 0x01	; 1
 e22:	90 e0       	ldi	r25, 0x00	; 0
 e24:	02 c0       	rjmp	.+4      	; 0xe2a <M_Dio_PinWrite+0x108>
 e26:	88 0f       	add	r24, r24
 e28:	99 1f       	adc	r25, r25
 e2a:	2a 95       	dec	r18
 e2c:	e2 f7       	brpl	.-8      	; 0xe26 <M_Dio_PinWrite+0x104>
 e2e:	83 2b       	or	r24, r19
 e30:	82 bb       	out	0x12, r24	; 18
 e32:	08 95       	ret

00000e34 <__tablejump2__>:
 e34:	ee 0f       	add	r30, r30
 e36:	ff 1f       	adc	r31, r31
 e38:	05 90       	lpm	r0, Z+
 e3a:	f4 91       	lpm	r31, Z
 e3c:	e0 2d       	mov	r30, r0
 e3e:	09 94       	ijmp

00000e40 <_exit>:
 e40:	f8 94       	cli

00000e42 <__stop_program>:
 e42:	ff cf       	rjmp	.-2      	; 0xe42 <__stop_program>
